(dp1
S'OriginalConfig'
p2
ccopy_reg
_reconstructor
p3
(cWMCore.Configuration
Configuration
p4
c__builtin__
object
p5
NtRp6
(dp7
S'Site'
p8
g3
(cWMCore.Configuration
ConfigSection
p9
g5
NtRp10
(dp11
S'_internal_documentation'
p12
S''
sS'_internal_settings'
p13
c__builtin__
set
p14
((lp15
S'storageSite'
p16
atRp17
sS'_internal_name'
p18
g8
sS'_internal_docstrings'
p19
(dp20
sS'_internal_children'
p21
g14
((ltRp22
sg16
S'T3_CH_PSI'
p23
sS'_internal_parent_ref'
p24
NsbsS'_internal_sections'
p25
(lp26
S'General'
p27
aS'JobType'
p28
aS'Data'
p29
ag8
aS'User'
p30
aS'Debug'
p31
asg27
g3
(g9
g5
NtRp32
(dp33
g12
S''
sg13
g14
((lp34
S'workArea'
p35
aS'requestName'
p36
atRp37
sg18
g27
sg19
(dp38
sg21
g14
((ltRp39
sg36
S'SingleMu_Run2015A-PromptReco-v1_RECO'
p40
sg24
Nsg35
S'2015-06-12_runa_flat2'
p41
sbsS'_internal_webapps'
p42
(lp43
sg30
g3
(g9
g5
NtRp44
(dp45
g12
S''
sg13
g14
((ltRp46
sg18
g30
sg19
(dp47
sg21
g14
((ltRp48
sg24
NsbsS'_internal_components'
p49
(lp50
sg31
g3
(g9
g5
NtRp51
(dp52
g12
S''
sg13
g14
((ltRp53
sg18
g31
sg19
(dp54
sg21
g14
((ltRp55
sg24
Nsbsg29
g3
(g9
g5
NtRp56
(dp57
S'inputDataset'
p58
S'/SingleMu/Run2015A-PromptReco-v1/RECO'
p59
sS'publication'
p60
I00
sS'splitting'
p61
S'LumiBased'
p62
sS'unitsPerJob'
p63
I15
sg12
S''
sg13
g14
((lp64
g58
ag60
ag63
ag61
aS'inputDBS'
p65
aS'outLFNDirBase'
p66
aS'lumiMask'
p67
atRp68
sg18
g29
sg65
S'global'
p69
sg19
(dp70
sg21
g14
((ltRp71
sg66
S'/store/user/cheidegg/METskims/2015-06-12_runa_flat'
p72
sg24
Nsg67
S'json_DCSONLY_150709_skim_v1.txt'
p73
sbsg28
g3
(g9
g5
NtRp74
(dp75
S'outputFiles'
p76
(lp77
S'tuple.root'
p78
asg12
S''
sg13
g14
((lp79
S'psetName'
p80
aS'pluginName'
p81
ag76
atRp82
sg18
g28
sg19
(dp83
sg81
S'Analysis'
p84
sg21
g14
((ltRp85
sg80
S'../python/skim.py'
p86
sg24
NsbsbsS'voGroup'
p87
S''
sS'Server'
p88
S'cmsweb.cern.ch'
p89
sS'instance'
p90
S'prod'
p91
sS'RequestName'
p92
S'150611_162347:cheidegg_crab_SingleMu_Run2015A-PromptReco-v1_RECO'
p93
sS'voRole'
p94
S'NULL'
p95
sS'Port'
p96
S''
s.