ccopy_reg
_reconstructor
p0
(cFWCore.ParameterSet.Config
Process
p1
c__builtin__
object
p2
Ntp3
Rp4
(dp5
S'CaloGeometryBuilder'
p6
g0
(cFWCore.ParameterSet.Modules
ESProducer
p7
g2
Ntp8
Rp9
(dp10
S'_Parameterizable__parameterNames'
p11
(lp12
S'SelectedCalos'
p13
asS'_isFrozen'
p14
I00
sS'_isModified'
p15
I00
sS'_lineNumber'
p16
I40
sS'_filename'
p17
S'/afs/cern.ch/user/c/cheidegg/p/CMSSW_7_4_4_patch2/python/FWCore/ParameterSet/Modules.py'
p18
sg13
g0
(cFWCore.ParameterSet.Types
vstring
p19
c__builtin__
list
p20
(lp21
S'HCAL'
p22
aS'ZDC'
p23
aS'CASTOR'
p24
aS'EcalBarrel'
p25
aS'EcalEndcap'
p26
aS'EcalPreshower'
p27
aS'TOWER'
p28
atp29
Rp30
(dp31
g14
I00
sS'_ParameterTypeBase__isTracked'
p32
I01
sg15
I00
sS'_nPerLine'
p33
I1
sbsS'_Labelable__label'
p34
g6
sS'_TypedParameterizable__type'
p35
g6
sbsS'_Process__sequences'
p36
(dp37
S'particleFlowCluster'
p38
g0
(cFWCore.ParameterSet.SequenceTypes
Sequence
p39
g2
Ntp40
Rp41
(dp42
g14
I00
sS'_seq'
p43
g0
(cFWCore.ParameterSet.SequenceTypes
_SequenceCollection
p44
g2
Ntp45
Rp46
(dp47
S'_collection'
p48
(lp49
g0
(g39
g2
Ntp50
Rp51
(dp52
g14
I00
sg43
g0
(g44
g2
Ntp53
Rp54
(dp55
g48
(lp56
g0
(cFWCore.ParameterSet.Modules
EDProducer
p57
g2
Ntp58
Rp59
(dp60
g11
(lp61
S'producers'
p62
aS'navigator'
p63
asg14
I00
sg15
I00
sg16
I14
sg17
S'/cvmfs/cms.cern.ch/slc6_amd64_gcc491/cms/cmssw-patch/CMSSW_7_4_4_patch2/python/RecoParticleFlow/PFClusterProducer/particleFlowRecHitPS_cfi.py'
p64
sg62
g0
(cFWCore.ParameterSet.Types
VPSet
p65
g20
(lp66
g0
(cFWCore.ParameterSet.Types
PSet
p67
g2
Ntp68
Rp69
(dp70
g14
I00
sg32
I01
sg15
I00
sS'qualityTests'
p71
g0
(g65
g20
(lp72
g0
(g67
g2
Ntp73
Rp74
(dp75
g14
I00
sg32
I01
sS'name'
p76
g0
(cFWCore.ParameterSet.Types
string
p77
g2
Ntp78
Rp79
(dp80
g14
I00
sg32
I01
sS'_value'
p81
S'PFRecHitQTestThreshold'
p82
sg15
I00
sbsg11
(lp83
S'threshold'
p84
ag76
asg84
g0
(cFWCore.ParameterSet.Types
double
p85
g2
Ntp86
Rp87
(dp88
g14
I00
sg32
I01
sg81
F7e-06
sg15
I00
sbsg15
I00
sbatp89
Rp90
(dp91
g14
I00
sg32
I01
sg15
I00
sg33
I1
sbsS'src'
p92
g0
(cFWCore.ParameterSet.Types
InputTag
p93
g2
Ntp94
Rp95
(dp96
g14
I00
sg32
I01
sg15
I00
sS'_InputTag__moduleLabel'
p97
S'ecalPreshowerRecHit'
p98
sS'_InputTag__processName'
p99
S''
p100
sS'_InputTag__productInstance'
p101
S'EcalRecHitsES'
p102
sbsg11
(lp103
g92
ag76
ag71
asg76
g0
(g77
g2
Ntp104
Rp105
(dp106
g14
I00
sg32
I01
sg81
S'PFPSRecHitCreator'
p107
sg15
I00
sbsbatp108
Rp109
(dp110
g14
I00
sg32
I01
sg15
I00
sg33
I1
sbsg34
S'particleFlowRecHitPS'
p111
sg63
g0
(g67
g2
Ntp112
Rp113
(dp114
g14
I00
sg32
I01
sg15
I00
sg76
g0
(g77
g2
Ntp115
Rp116
(dp117
g14
I00
sg32
I01
sg81
S'PFRecHitPreshowerNavigator'
p118
sg15
I00
sbsg11
(lp119
g76
asbsg35
S'PFRecHitProducer'
p120
sbag0
(g57
g2
Ntp121
Rp122
(dp123
g11
(lp124
S'pfClusterBuilder'
p125
aS'positionReCalc'
p126
aS'initialClusteringStep'
p127
aS'energyCorrector'
p128
aS'recHitCleaners'
p129
aS'seedFinder'
p130
aS'recHitsSource'
p131
asg14
I00
sg126
g0
(g67
g2
Ntp132
Rp133
(dp134
g14
I00
sg32
I01
sg15
I00
sg11
(lp135
sbsg15
I00
sg125
g0
(g67
g2
Ntp136
Rp137
(dp138
g14
I00
sg32
I01
sS'minFracTot'
p139
g0
(g85
g2
Ntp140
Rp141
(dp142
g14
I00
sg32
I01
sg81
F1e-20
sg15
I00
sbsS'maxIterations'
p143
g0
(cFWCore.ParameterSet.Types
uint32
p144
g2
Ntp145
Rp146
(dp147
g14
I00
sg32
I01
sg81
I50
sg15
I00
sbsS'algoName'
p148
g0
(g77
g2
Ntp149
Rp150
(dp151
g14
I00
sg32
I01
sg81
S'Basic2DGenericPFlowClusterizer'
p152
sg15
I00
sbsg15
I00
sS'showerSigma'
p153
g0
(g85
g2
Ntp154
Rp155
(dp156
g14
I00
sg32
I01
sg81
F0.3
sg15
I00
sbsS'positionCalc'
p157
g0
(g67
g2
Ntp158
Rp159
(dp160
g14
I00
sg32
I01
sS'logWeightDenominator'
p161
g0
(g85
g2
Ntp162
Rp163
(dp164
g14
I00
sg32
I01
sg81
F6e-05
sg15
I00
sbsS'posCalcNCrystals'
p165
g0
(cFWCore.ParameterSet.Types
int32
p166
g2
Ntp167
Rp168
(dp169
g14
I00
sg32
I01
sg81
I-1
sg15
I00
sbsg15
I00
sS'minFractionInCalc'
p170
g0
(g85
g2
Ntp171
Rp172
(dp173
g14
I00
sg32
I01
sg81
F1e-09
sg15
I00
sbsg11
(lp174
S'minAllowedNormalization'
p175
ag170
ag161
ag165
ag148
asg175
g0
(g85
g2
Ntp176
Rp177
(dp178
g14
I00
sg32
I01
sg81
F1e-09
sg15
I00
sbsg148
g0
(g77
g2
Ntp179
Rp180
(dp181
g14
I00
sg32
I01
sg81
S'Basic2DGenericPFlowPositionCalc'
p182
sg15
I00
sbsbsS'recHitEnergyNorms'
p183
g0
(g65
g20
(lp184
g0
(g67
g2
Ntp185
Rp186
(dp187
g14
I00
sg32
I01
sg15
I00
sS'recHitEnergyNorm'
p188
g0
(g85
g2
Ntp189
Rp190
(dp191
g14
I00
sg32
I01
sg81
F6e-05
sg15
I00
sbsg11
(lp192
S'detector'
p193
ag188
asg193
g0
(g77
g2
Ntp194
Rp195
(dp196
g14
I00
sg32
I01
sg81
S'PS1'
p197
sg15
I00
sbsbag0
(g67
g2
Ntp198
Rp199
(dp200
g14
I00
sg32
I01
sg15
I00
sg188
g0
(g85
g2
Ntp201
Rp202
(dp203
g14
I00
sg32
I01
sg81
F6e-05
sg15
I00
sbsg11
(lp204
g193
ag188
asg193
g0
(g77
g2
Ntp205
Rp206
(dp207
g14
I00
sg32
I01
sg81
S'PS2'
p208
sg15
I00
sbsbatp209
Rp210
(dp211
g14
I00
sg32
I01
sg15
I00
sg33
I1
sbsS'stoppingTolerance'
p212
g0
(g85
g2
Ntp213
Rp214
(dp215
g14
I00
sg32
I01
sg81
F1e-08
sg15
I00
sbsg11
(lp216
g148
ag143
ag153
ag183
ag157
ag139
ag212
aS'minFractionToKeep'
p217
aS'excludeOtherSeeds'
p218
asg218
g0
(cFWCore.ParameterSet.Types
bool
p219
g2
Ntp220
Rp221
(dp222
g14
I00
sg32
I01
sg81
I01
sg15
I00
sbsg217
g0
(g85
g2
Ntp223
Rp224
(dp225
g14
I00
sg32
I01
sg81
F1e-07
sg15
I00
sbsbsg17
S'/cvmfs/cms.cern.ch/slc6_amd64_gcc491/cms/cmssw-patch/CMSSW_7_4_4_patch2/python/RecoParticleFlow/PFClusterProducer/particleFlowClusterPS_cfi.py'
p226
sg128
g0
(g67
g2
Ntp227
Rp228
(dp229
g14
I00
sg32
I01
sg15
I00
sg11
(lp230
sbsg129
g0
(g65
g20
(lp231
tp232
Rp233
(dp234
g14
I00
sg32
I01
sg15
I00
sg33
I1
sbsg16
I79
sg130
g0
(g67
g2
Ntp235
Rp236
(dp237
g14
I00
sg32
I01
sg148
g0
(g77
g2
Ntp238
Rp239
(dp240
g14
I00
sg32
I01
sg81
S'LocalMaximumSeedFinder'
p241
sg15
I00
sbsg15
I00
sS'thresholdsByDetector'
p242
g0
(g65
g20
(lp243
g0
(g67
g2
Ntp244
Rp245
(dp246
g14
I00
sg32
I01
sS'seedingThreshold'
p247
g0
(g85
g2
Ntp248
Rp249
(dp250
g14
I00
sg32
I01
sg81
F0.00012
sg15
I00
sbsg15
I00
sS'seedingThresholdPt'
p251
g0
(g85
g2
Ntp252
Rp253
(dp254
g14
I00
sg32
I01
sg81
F0.0
sg15
I00
sbsg11
(lp255
g247
ag251
ag193
asg193
g0
(g77
g2
Ntp256
Rp257
(dp258
g14
I00
sg32
I01
sg81
g197
sg15
I00
sbsbag0
(g67
g2
Ntp259
Rp260
(dp261
g14
I00
sg32
I01
sg247
g0
(g85
g2
Ntp262
Rp263
(dp264
g14
I00
sg32
I01
sg81
F0.00012
sg15
I00
sbsg15
I00
sg251
g0
(g85
g2
Ntp265
Rp266
(dp267
g14
I00
sg32
I01
sg81
F0.0
sg15
I00
sbsg11
(lp268
g247
ag251
ag193
asg193
g0
(g77
g2
Ntp269
Rp270
(dp271
g14
I00
sg32
I01
sg81
g208
sg15
I00
sbsbatp272
Rp273
(dp274
g14
I00
sg32
I01
sg15
I00
sg33
I1
sbsg11
(lp275
g148
ag242
aS'nNeighbours'
p276
asg276
g0
(g166
g2
Ntp277
Rp278
(dp279
g14
I00
sg32
I01
sg81
I4
sg15
I00
sbsbsg131
g0
(g93
g2
Ntp280
Rp281
(dp282
g14
I00
sg32
I01
sg15
I00
sg97
g111
sg99
g100
sg101
g100
sbsg34
S'particleFlowClusterPS'
p283
sg35
S'PFClusterProducer'
p284
sg127
g0
(g67
g2
Ntp285
Rp286
(dp287
g14
I00
sg32
I01
sg148
g0
(g77
g2
Ntp288
Rp289
(dp290
g14
I00
sg32
I01
sg81
S'Basic2DGenericTopoClusterizer'
p291
sg15
I00
sbsg15
I00
sg242
g0
(g65
g20
(lp292
g0
(g67
g2
Ntp293
Rp294
(dp295
g14
I00
sg32
I01
sg15
I00
sg11
(lp296
g193
aS'gatheringThresholdPt'
p297
aS'gatheringThreshold'
p298
asg193
g0
(g77
g2
Ntp299
Rp300
(dp301
g14
I00
sg32
I01
sg81
g197
sg15
I00
sbsg297
g0
(g85
g2
Ntp302
Rp303
(dp304
g14
I00
sg32
I01
sg81
F0.0
sg15
I00
sbsg298
g0
(g85
g2
Ntp305
Rp306
(dp307
g14
I00
sg32
I01
sg81
F6e-05
sg15
I00
sbsbag0
(g67
g2
Ntp308
Rp309
(dp310
g14
I00
sg32
I01
sg15
I00
sg11
(lp311
g193
ag297
ag298
asg193
g0
(g77
g2
Ntp312
Rp313
(dp314
g14
I00
sg32
I01
sg81
g208
sg15
I00
sbsg297
g0
(g85
g2
Ntp315
Rp316
(dp317
g14
I00
sg32
I01
sg81
F0.0
sg15
I00
sbsg298
g0
(g85
g2
Ntp318
Rp319
(dp320
g14
I00
sg32
I01
sg81
F6e-05
sg15
I00
sbsbatp321
Rp322
(dp323
g14
I00
sg32
I01
sg15
I00
sg33
I1
sbsS'useCornerCells'
p324
g0
(g219
g2
Ntp325
Rp326
(dp327
g14
I00
sg32
I01
sg81
I00
sg15
I00
sbsg11
(lp328
g148
ag242
ag324
asbsbasbsg15
I00
sg34
S'pfClusteringPS'
p329
sbag0
(g39
g2
Ntp330
Rp331
(dp332
g14
I00
sg43
g0
(g44
g2
Ntp333
Rp334
(dp335
g48
(lp336
g0
(g57
g2
Ntp337
Rp338
(dp339
g11
(lp340
g62
ag63
asg14
I00
sg15
I00
sg16
I45
sg17
S'/cvmfs/cms.cern.ch/slc6_amd64_gcc491/cms/cmssw-patch/CMSSW_7_4_4_patch2/python/RecoParticleFlow/PFClusterProducer/particleFlowRecHitECAL_cfi.py'
p341
sg62
g0
(g65
g20
(lp342
g0
(g67
g2
Ntp343
Rp344
(dp345
g14
I00
sg32
I01
sg15
I00
sg71
g0
(g65
g20
(lp346
g0
(g67
g2
Ntp347
Rp348
(dp349
g14
I00
sg32
I01
sg76
g0
(g77
g2
Ntp350
Rp351
(dp352
g14
I00
sg32
I01
sg81
g82
sg15
I00
sbsg11
(lp353
g84
ag76
asg84
g0
(g85
g2
Ntp354
Rp355
(dp356
g14
I00
sg32
I01
sg81
F0.08
sg15
I00
sbsg15
I00
sbag0
(g67
g2
Ntp357
Rp358
(dp359
g14
I00
sg32
I01
sg15
I00
sg76
g0
(g77
g2
Ntp360
Rp361
(dp362
g14
I00
sg32
I01
sg81
S'PFRecHitQTestECAL'
p363
sg15
I00
sbsg11
(lp364
S'skipTTRecoveredHits'
p365
aS'cleaningThreshold'
p366
aS'timingCleaning'
p367
ag76
aS'topologicalCleaning'
p368
asg366
g0
(g85
g2
Ntp369
Rp370
(dp371
g14
I00
sg32
I01
sg81
F2.0
sg15
I00
sbsg365
g0
(g219
g2
Ntp372
Rp373
(dp374
g14
I00
sg32
I01
sg81
I01
sg15
I00
sbsg368
g0
(g219
g2
Ntp375
Rp376
(dp377
g14
I00
sg32
I01
sg81
I01
sg15
I00
sbsg367
g0
(g219
g2
Ntp378
Rp379
(dp380
g14
I00
sg32
I01
sg81
I01
sg15
I00
sbsbatp381
Rp382
(dp383
g14
I00
sg32
I01
sg15
I00
sg33
I1
sbsg92
g0
(g93
g2
Ntp384
Rp385
(dp386
g14
I00
sg32
I01
sg15
I00
sg97
S'ecalRecHit'
p387
sg99
g100
sg101
S'EcalRecHitsEB'
p388
sbsg11
(lp389
g92
ag76
ag71
asg76
g0
(g77
g2
Ntp390
Rp391
(dp392
g14
I00
sg32
I01
sg81
S'PFEBRecHitCreator'
p393
sg15
I00
sbsbag0
(g67
g2
Ntp394
Rp395
(dp396
g14
I00
sg32
I01
sg15
I00
sg71
g0
(g65
g20
(lp397
g0
(g67
g2
Ntp398
Rp399
(dp400
g14
I00
sg32
I01
sg76
g0
(g77
g2
Ntp401
Rp402
(dp403
g14
I00
sg32
I01
sg81
g82
sg15
I00
sbsg11
(lp404
g84
ag76
asg84
g0
(g85
g2
Ntp405
Rp406
(dp407
g14
I00
sg32
I01
sg81
F0.3
sg15
I00
sbsg15
I00
sbag0
(g67
g2
Ntp408
Rp409
(dp410
g14
I00
sg32
I01
sg15
I00
sg76
g0
(g77
g2
Ntp411
Rp412
(dp413
g14
I00
sg32
I01
sg81
g363
sg15
I00
sbsg11
(lp414
g365
ag366
ag367
ag76
ag368
asg366
g0
(g85
g2
Ntp415
Rp416
(dp417
g14
I00
sg32
I01
sg81
F2.0
sg15
I00
sbsg365
g0
(g219
g2
Ntp418
Rp419
(dp420
g14
I00
sg32
I01
sg81
I01
sg15
I00
sbsg368
g0
(g219
g2
Ntp421
Rp422
(dp423
g14
I00
sg32
I01
sg81
I01
sg15
I00
sbsg367
g0
(g219
g2
Ntp424
Rp425
(dp426
g14
I00
sg32
I01
sg81
I01
sg15
I00
sbsbatp427
Rp428
(dp429
g14
I00
sg32
I01
sg15
I00
sg33
I1
sbsg92
g0
(g93
g2
Ntp430
Rp431
(dp432
g14
I00
sg32
I01
sg15
I00
sg97
g387
sg99
g100
sg101
S'EcalRecHitsEE'
p433
sbsg11
(lp434
g92
ag76
ag71
asg76
g0
(g77
g2
Ntp435
Rp436
(dp437
g14
I00
sg32
I01
sg81
S'PFEERecHitCreator'
p438
sg15
I00
sbsbatp439
Rp440
(dp441
g14
I00
sg32
I01
sg15
I00
sg33
I1
sbsg34
S'particleFlowRecHitECAL'
p442
sg63
g0
(g67
g2
Ntp443
Rp444
(dp445
g14
I00
sg32
I01
sg15
I00
sg11
(lp446
S'barrel'
p447
ag76
aS'endcap'
p448
asg447
g0
(g67
g2
Ntp449
Rp450
(dp451
g14
I00
sg32
I01
sg15
I00
sg11
(lp452
sbsg448
g0
(g67
g2
Ntp453
Rp454
(dp455
g14
I00
sg32
I01
sg15
I00
sg11
(lp456
sbsg76
g0
(g77
g2
Ntp457
Rp458
(dp459
g14
I00
sg32
I01
sg81
S'PFRecHitECALNavigator'
p460
sg15
I00
sbsbsg35
g120
sbag0
(g57
g2
Ntp461
Rp462
(dp463
g11
(lp464
g125
ag126
ag127
ag128
ag129
ag130
ag131
asg14
I00
sg126
g0
(g67
g2
Ntp465
Rp466
(dp467
g14
I00
sg32
I01
sg148
g0
(g77
g2
Ntp468
Rp469
(dp470
g14
I00
sg32
I01
sg81
S'ECAL2DPositionCalcWithDepthCorr'
p471
sg15
I00
sbsg15
I00
sg170
g0
(g85
g2
Ntp472
Rp473
(dp474
g14
I00
sg32
I01
sg81
F0.0
sg15
I00
sbsS'T0_ES'
p475
g0
(g85
g2
Ntp476
Rp477
(dp478
g14
I00
sg32
I01
sg81
F1.2
sg15
I00
sbsS'W0'
p479
g0
(g85
g2
Ntp480
Rp481
(dp482
g14
I00
sg32
I01
sg81
F4.2
sg15
I00
sbsg11
(lp483
g148
ag170
ag475
ag479
ag175
aS'X0'
p484
aS'T0_EB'
p485
aS'T0_EE'
p486
asg175
g0
(g85
g2
Ntp487
Rp488
(dp489
g14
I00
sg32
I01
sg81
F0.0
sg15
I00
sbsg484
g0
(g85
g2
Ntp490
Rp491
(dp492
g14
I00
sg32
I01
sg81
F0.89
sg15
I00
sbsg485
g0
(g85
g2
Ntp493
Rp494
(dp495
g14
I00
sg32
I01
sg81
F7.4
sg15
I00
sbsg486
g0
(g85
g2
Ntp496
Rp497
(dp498
g14
I00
sg32
I01
sg81
F3.1
sg15
I00
sbsbsg15
I00
sg125
g0
(g67
g2
Ntp499
Rp500
(dp501
g14
I00
sg32
I01
sg143
g0
(g144
g2
Ntp502
Rp503
(dp504
g14
I00
sg32
I01
sg81
I50
sg15
I00
sbsg148
g0
(g77
g2
Ntp505
Rp506
(dp507
g14
I00
sg32
I01
sg81
g152
sg15
I00
sbsg15
I00
sS'allCellsPositionCalc'
p508
g0
(g67
g2
Ntp509
Rp510
(dp511
g14
I00
sg32
I01
sg161
g0
(g85
g2
Ntp512
Rp513
(dp514
g14
I00
sg32
I01
sg81
F0.08
sg15
I00
sbsg148
g0
(g77
g2
Ntp515
Rp516
(dp517
g14
I00
sg32
I01
sg81
g182
sg15
I00
sbsg15
I00
sS'timeResolutionCalcBarrel'
p518
g0
(g67
g2
Ntp519
Rp520
(dp521
g14
I00
sg32
I01
sS'noiseTermLowE'
p522
g0
(g85
g2
Ntp523
Rp524
(dp525
g14
I00
sg32
I01
sg81
F1.3188299999994002
sg15
I00
sbsg15
I00
sS'constantTerm'
p526
g0
(g85
g2
Ntp527
Rp528
(dp529
g14
I00
sg32
I01
sg81
F0.428192
sg15
I00
sbsS'constantTermLowE'
p530
g0
(g85
g2
Ntp531
Rp532
(dp533
g14
I00
sg32
I01
sg81
F0.0
sg15
I00
sbsS'corrTermLowE'
p534
g0
(g85
g2
Ntp535
Rp536
(dp537
g14
I00
sg32
I01
sg81
F0.0510871
sg15
I00
sbsS'noiseTerm'
p538
g0
(g85
g2
Ntp539
Rp540
(dp541
g14
I00
sg32
I01
sg81
F1.1088899999982
sg15
I00
sbsS'threshLowE'
p542
g0
(g85
g2
Ntp543
Rp544
(dp545
g14
I00
sg32
I01
sg81
F0.5
sg15
I00
sbsg11
(lp546
g530
ag522
ag526
ag538
ag534
ag542
aS'threshHighE'
p547
asg547
g0
(g85
g2
Ntp548
Rp549
(dp550
g14
I00
sg32
I01
sg81
F5.0
sg15
I00
sbsbsg170
g0
(g85
g2
Ntp551
Rp552
(dp553
g14
I00
sg32
I01
sg81
F1e-09
sg15
I00
sbsS'timeResolutionCalcEndcap'
p554
g0
(g67
g2
Ntp555
Rp556
(dp557
g14
I00
sg32
I01
sg522
g0
(g85
g2
Ntp558
Rp559
(dp560
g14
I00
sg32
I01
sg81
F6.926830000006
sg15
I00
sbsg15
I00
sg526
g0
(g85
g2
Ntp561
Rp562
(dp563
g14
I00
sg32
I01
sg81
F0.0
sg15
I00
sbsg530
g0
(g85
g2
Ntp564
Rp565
(dp566
g14
I00
sg32
I01
sg81
F0.0
sg15
I00
sbsg534
g0
(g85
g2
Ntp567
Rp568
(dp569
g14
I00
sg32
I01
sg81
F0.0
sg15
I00
sbsg538
g0
(g85
g2
Ntp570
Rp571
(dp572
g14
I00
sg32
I01
sg81
F5.724899999994
sg15
I00
sbsg542
g0
(g85
g2
Ntp573
Rp574
(dp575
g14
I00
sg32
I01
sg81
F1.0
sg15
I00
sbsg11
(lp576
g530
ag522
ag526
ag538
ag534
ag542
ag547
asg547
g0
(g85
g2
Ntp577
Rp578
(dp579
g14
I00
sg32
I01
sg81
F10.0
sg15
I00
sbsbsg11
(lp580
g148
ag170
ag161
ag165
ag518
ag554
ag175
asg175
g0
(g85
g2
Ntp581
Rp582
(dp583
g14
I00
sg32
I01
sg81
F1e-09
sg15
I00
sbsg165
g0
(g166
g2
Ntp584
Rp585
(dp586
g14
I00
sg32
I01
sg81
I-1
sg15
I00
sbsbsg153
g0
(g85
g2
Ntp587
Rp588
(dp589
g14
I00
sg32
I01
sg81
F1.5
sg15
I00
sbsg183
g0
(g65
g20
(lp590
g0
(g67
g2
Ntp591
Rp592
(dp593
g14
I00
sg32
I01
sg15
I00
sg188
g0
(g85
g2
Ntp594
Rp595
(dp596
g14
I00
sg32
I01
sg81
F0.08
sg15
I00
sbsg11
(lp597
g193
ag188
asg193
g0
(g77
g2
Ntp598
Rp599
(dp600
g14
I00
sg32
I01
sg81
S'ECAL_BARREL'
p601
sg15
I00
sbsbag0
(g67
g2
Ntp602
Rp603
(dp604
g14
I00
sg32
I01
sg15
I00
sg188
g0
(g85
g2
Ntp605
Rp606
(dp607
g14
I00
sg32
I01
sg81
F0.3
sg15
I00
sbsg11
(lp608
g193
ag188
asg193
g0
(g77
g2
Ntp609
Rp610
(dp611
g14
I00
sg32
I01
sg81
S'ECAL_ENDCAP'
p612
sg15
I00
sbsbatp613
Rp614
(dp615
g14
I00
sg32
I01
sg15
I00
sg33
I1
sbsg157
g0
(g67
g2
Ntp616
Rp617
(dp618
g14
I00
sg32
I01
sg161
g0
(g85
g2
Ntp619
Rp620
(dp621
g14
I00
sg32
I01
sg81
F0.08
sg15
I00
sbsg148
g0
(g77
g2
Ntp622
Rp623
(dp624
g14
I00
sg32
I01
sg81
g182
sg15
I00
sbsg15
I00
sg518
g0
(g67
g2
Ntp625
Rp626
(dp627
g14
I00
sg32
I01
sg522
g0
(g85
g2
Ntp628
Rp629
(dp630
g14
I00
sg32
I01
sg81
F1.3188299999994002
sg15
I00
sbsg15
I00
sg526
g0
(g85
g2
Ntp631
Rp632
(dp633
g14
I00
sg32
I01
sg81
F0.428192
sg15
I00
sbsg530
g0
(g85
g2
Ntp634
Rp635
(dp636
g14
I00
sg32
I01
sg81
F0.0
sg15
I00
sbsg534
g0
(g85
g2
Ntp637
Rp638
(dp639
g14
I00
sg32
I01
sg81
F0.0510871
sg15
I00
sbsg538
g0
(g85
g2
Ntp640
Rp641
(dp642
g14
I00
sg32
I01
sg81
F1.1088899999982
sg15
I00
sbsg542
g0
(g85
g2
Ntp643
Rp644
(dp645
g14
I00
sg32
I01
sg81
F0.5
sg15
I00
sbsg11
(lp646
g530
ag522
ag526
ag538
ag534
ag542
ag547
asg547
g0
(g85
g2
Ntp647
Rp648
(dp649
g14
I00
sg32
I01
sg81
F5.0
sg15
I00
sbsbsg170
g0
(g85
g2
Ntp650
Rp651
(dp652
g14
I00
sg32
I01
sg81
F1e-09
sg15
I00
sbsg554
g0
(g67
g2
Ntp653
Rp654
(dp655
g14
I00
sg32
I01
sg522
g0
(g85
g2
Ntp656
Rp657
(dp658
g14
I00
sg32
I01
sg81
F6.926830000006
sg15
I00
sbsg15
I00
sg526
g0
(g85
g2
Ntp659
Rp660
(dp661
g14
I00
sg32
I01
sg81
F0.0
sg15
I00
sbsg530
g0
(g85
g2
Ntp662
Rp663
(dp664
g14
I00
sg32
I01
sg81
F0.0
sg15
I00
sbsg534
g0
(g85
g2
Ntp665
Rp666
(dp667
g14
I00
sg32
I01
sg81
F0.0
sg15
I00
sbsg538
g0
(g85
g2
Ntp668
Rp669
(dp670
g14
I00
sg32
I01
sg81
F5.724899999994
sg15
I00
sbsg542
g0
(g85
g2
Ntp671
Rp672
(dp673
g14
I00
sg32
I01
sg81
F1.0
sg15
I00
sbsg11
(lp674
g530
ag522
ag526
ag538
ag534
ag542
ag547
asg547
g0
(g85
g2
Ntp675
Rp676
(dp677
g14
I00
sg32
I01
sg81
F10.0
sg15
I00
sbsbsg11
(lp678
g148
ag170
ag161
ag165
ag518
ag554
ag175
asg175
g0
(g85
g2
Ntp679
Rp680
(dp681
g14
I00
sg32
I01
sg81
F1e-09
sg15
I00
sbsg165
g0
(g166
g2
Ntp682
Rp683
(dp684
g14
I00
sg32
I01
sg81
I9
sg15
I00
sbsbsg139
g0
(g85
g2
Ntp685
Rp686
(dp687
g14
I00
sg32
I01
sg81
F1e-20
sg15
I00
sbsg212
g0
(g85
g2
Ntp688
Rp689
(dp690
g14
I00
sg32
I01
sg81
F1e-08
sg15
I00
sbsg11
(lp691
g148
ag143
ag139
ag508
ag153
ag157
ag183
ag212
aS'positionCalcForConvergence'
p692
ag217
ag218
asg692
g466
sg218
g0
(g219
g2
Ntp693
Rp694
(dp695
g14
I00
sg32
I01
sg81
I01
sg15
I00
sbsg217
g0
(g85
g2
Ntp696
Rp697
(dp698
g14
I00
sg32
I01
sg81
F1e-07
sg15
I00
sbsbsg17
S'/cvmfs/cms.cern.ch/slc6_amd64_gcc491/cms/cmssw-patch/CMSSW_7_4_4_patch2/python/RecoParticleFlow/PFClusterProducer/particleFlowClusterECALUncorrected_cfi.py'
p699
sg128
g0
(g67
g2
Ntp700
Rp701
(dp702
g14
I00
sg32
I01
sg15
I00
sg11
(lp703
sbsg129
g0
(g65
g20
(lp704
g0
(g67
g2
Ntp705
Rp706
(dp707
g14
I00
sg32
I01
sg148
g0
(g77
g2
Ntp708
Rp709
(dp710
g14
I00
sg32
I01
sg81
S'SpikeAndDoubleSpikeCleaner'
p711
sg15
I00
sbsg15
I00
sS'cleaningByDetector'
p712
g0
(g65
g20
(lp713
g0
(g67
g2
Ntp714
Rp715
(dp716
g14
I00
sg32
I01
sS'minS4S1_a'
p717
g0
(g85
g2
Ntp718
Rp719
(dp720
g14
I00
sg32
I01
sg81
F0.04
sg15
I00
sbsg15
I00
sS'minS4S1_b'
p721
g0
(g85
g2
Ntp722
Rp723
(dp724
g14
I00
sg32
I01
sg81
F-0.024
sg15
I00
sbsS'fractionThresholdModifier'
p725
g0
(g85
g2
Ntp726
Rp727
(dp728
g14
I00
sg32
I01
sg81
F3.0
sg15
I00
sbsS'energyThresholdModifier'
p729
g0
(g85
g2
Ntp730
Rp731
(dp732
g14
I00
sg32
I01
sg81
F2.0
sg15
I00
sbsS'singleSpikeThresh'
p733
g0
(g85
g2
Ntp734
Rp735
(dp736
g14
I00
sg32
I01
sg81
F4.0
sg15
I00
sbsS'doubleSpikeThresh'
p737
g0
(g85
g2
Ntp738
Rp739
(dp740
g14
I00
sg32
I01
sg81
F10.0
sg15
I00
sbsg11
(lp741
g717
ag721
ag725
ag729
ag737
ag733
aS'doubleSpikeS6S2'
p742
ag193
asg742
g0
(g85
g2
Ntp743
Rp744
(dp745
g14
I00
sg32
I01
sg81
F0.04
sg15
I00
sbsg193
g0
(g77
g2
Ntp746
Rp747
(dp748
g14
I00
sg32
I01
sg81
g601
sg15
I00
sbsbag0
(g67
g2
Ntp749
Rp750
(dp751
g14
I00
sg32
I01
sg717
g0
(g85
g2
Ntp752
Rp753
(dp754
g14
I00
sg32
I01
sg81
F0.02
sg15
I00
sbsg15
I00
sg721
g0
(g85
g2
Ntp755
Rp756
(dp757
g14
I00
sg32
I01
sg81
F-0.0125
sg15
I00
sbsg725
g0
(g85
g2
Ntp758
Rp759
(dp760
g14
I00
sg32
I01
sg81
F3.0
sg15
I00
sbsg729
g0
(g85
g2
Ntp761
Rp762
(dp763
g14
I00
sg32
I01
sg81
F2.0
sg15
I00
sbsg733
g0
(g85
g2
Ntp764
Rp765
(dp766
g14
I00
sg32
I01
sg81
F15.0
sg15
I00
sbsg737
g0
(g85
g2
Ntp767
Rp768
(dp769
g14
I00
sg32
I01
sg81
F1000000000.0
sg15
I00
sbsg11
(lp770
g717
ag721
ag725
ag729
ag737
ag733
ag742
ag193
asg742
g0
(g85
g2
Ntp771
Rp772
(dp773
g14
I00
sg32
I01
sg81
F-1.0
sg15
I00
sbsg193
g0
(g77
g2
Ntp774
Rp775
(dp776
g14
I00
sg32
I01
sg81
g612
sg15
I00
sbsbatp777
Rp778
(dp779
g14
I00
sg32
I01
sg15
I00
sg33
I1
sbsg11
(lp780
g148
ag712
asbatp781
Rp782
(dp783
g14
I00
sg32
I01
sg15
I00
sg33
I1
sbsg16
I125
sg130
g0
(g67
g2
Ntp784
Rp785
(dp786
g14
I00
sg32
I01
sg148
g0
(g77
g2
Ntp787
Rp788
(dp789
g14
I00
sg32
I01
sg81
g241
sg15
I00
sbsg15
I00
sg242
g0
(g65
g20
(lp790
g0
(g67
g2
Ntp791
Rp792
(dp793
g14
I00
sg32
I01
sg247
g0
(g85
g2
Ntp794
Rp795
(dp796
g14
I00
sg32
I01
sg81
F0.6
sg15
I00
sbsg15
I00
sg251
g0
(g85
g2
Ntp797
Rp798
(dp799
g14
I00
sg32
I01
sg81
F0.15
sg15
I00
sbsg11
(lp800
g247
ag251
ag193
asg193
g0
(g77
g2
Ntp801
Rp802
(dp803
g14
I00
sg32
I01
sg81
g612
sg15
I00
sbsbag0
(g67
g2
Ntp804
Rp805
(dp806
g14
I00
sg32
I01
sg247
g0
(g85
g2
Ntp807
Rp808
(dp809
g14
I00
sg32
I01
sg81
F0.23
sg15
I00
sbsg15
I00
sg251
g0
(g85
g2
Ntp810
Rp811
(dp812
g14
I00
sg32
I01
sg81
F0.0
sg15
I00
sbsg11
(lp813
g247
ag251
ag193
asg193
g0
(g77
g2
Ntp814
Rp815
(dp816
g14
I00
sg32
I01
sg81
g601
sg15
I00
sbsbatp817
Rp818
(dp819
g14
I00
sg32
I01
sg15
I00
sg33
I1
sbsg11
(lp820
g148
ag242
ag276
asg276
g0
(g166
g2
Ntp821
Rp822
(dp823
g14
I00
sg32
I01
sg81
I8
sg15
I00
sbsbsg131
g0
(g93
g2
Ntp824
Rp825
(dp826
g14
I00
sg32
I01
sg15
I00
sg97
g442
sg99
g100
sg101
g100
sbsg34
S'particleFlowClusterECALUncorrected'
p827
sg35
g284
sg127
g0
(g67
g2
Ntp828
Rp829
(dp830
g14
I00
sg32
I01
sg148
g0
(g77
g2
Ntp831
Rp832
(dp833
g14
I00
sg32
I01
sg81
g291
sg15
I00
sbsg15
I00
sg242
g0
(g65
g20
(lp834
g0
(g67
g2
Ntp835
Rp836
(dp837
g14
I00
sg32
I01
sg15
I00
sg11
(lp838
g193
ag297
ag298
asg193
g0
(g77
g2
Ntp839
Rp840
(dp841
g14
I00
sg32
I01
sg81
g601
sg15
I00
sbsg297
g0
(g85
g2
Ntp842
Rp843
(dp844
g14
I00
sg32
I01
sg81
F0.0
sg15
I00
sbsg298
g0
(g85
g2
Ntp845
Rp846
(dp847
g14
I00
sg32
I01
sg81
F0.08
sg15
I00
sbsbag0
(g67
g2
Ntp848
Rp849
(dp850
g14
I00
sg32
I01
sg15
I00
sg11
(lp851
g193
ag297
ag298
asg193
g0
(g77
g2
Ntp852
Rp853
(dp854
g14
I00
sg32
I01
sg81
g612
sg15
I00
sbsg297
g0
(g85
g2
Ntp855
Rp856
(dp857
g14
I00
sg32
I01
sg81
F0.0
sg15
I00
sbsg298
g0
(g85
g2
Ntp858
Rp859
(dp860
g14
I00
sg32
I01
sg81
F0.3
sg15
I00
sbsbatp861
Rp862
(dp863
g14
I00
sg32
I01
sg15
I00
sg33
I1
sbsg324
g0
(g219
g2
Ntp864
Rp865
(dp866
g14
I00
sg32
I01
sg81
I01
sg15
I00
sbsg11
(lp867
g148
ag242
ag324
asbsbag0
(g57
g2
Ntp868
Rp869
(dp870
g11
(lp871
S'minimumPSEnergy'
p872
aS'inputPS'
p873
ag128
aS'inputECAL'
p874
asg14
I00
sg15
I00
sg16
I20
sg17
S'/cvmfs/cms.cern.ch/slc6_amd64_gcc491/cms/cmssw-patch/CMSSW_7_4_4_patch2/python/RecoParticleFlow/PFClusterProducer/particleFlowClusterECAL_cfi.py'
p875
sg128
g0
(g67
g2
Ntp876
Rp877
(dp878
g14
I00
sg32
I01
sS'applyCrackCorrections'
p879
g0
(g219
g2
Ntp880
Rp881
(dp882
g14
I00
sg32
I01
sg81
I00
sg15
I00
sbsg148
g0
(g77
g2
Ntp883
Rp884
(dp885
g14
I00
sg32
I01
sg81
S'PFClusterEMEnergyCorrector'
p886
sg15
I00
sbsg15
I00
sS'recHitsEELabel'
p887
g0
(g93
g2
Ntp888
Rp889
(dp890
g14
I00
sg32
I01
sg15
I00
sg97
g387
sg99
g100
sg101
g433
sbsS'autoDetectBunchSpacing'
p891
g0
(g219
g2
Ntp892
Rp893
(dp894
g14
I00
sg32
I01
sg81
I01
sg15
I00
sbsS'recHitsEBLabel'
p895
g0
(g93
g2
Ntp896
Rp897
(dp898
g14
I00
sg32
I01
sg15
I00
sg97
g387
sg99
g100
sg101
g388
sbsS'applyMVACorrections'
p899
g0
(g219
g2
Ntp900
Rp901
(dp902
g14
I00
sg32
I01
sg81
I01
sg15
I00
sbsg11
(lp903
g879
ag148
ag887
ag891
ag899
ag895
asbsg872
g0
(g85
g2
Ntp904
Rp905
(dp906
g14
I00
sg32
I01
sg81
F0.0
sg15
I00
sbsg34
S'particleFlowClusterECAL'
p907
sg874
g0
(g93
g2
Ntp908
Rp909
(dp910
g14
I00
sg32
I01
sg15
I00
sg97
g827
sg99
g100
sg101
g100
sbsg873
g0
(g93
g2
Ntp911
Rp912
(dp913
g14
I00
sg32
I01
sg15
I00
sg97
g283
sg99
g100
sg101
g100
sbsg35
S'CorrectedECALPFClusterProducer'
p914
sbasbsg15
I00
sg34
S'pfClusteringECAL'
p915
sbag0
(g39
g2
Ntp916
Rp917
(dp918
g14
I00
sg43
g0
(g44
g2
Ntp919
Rp920
(dp921
g48
(lp922
g0
(g57
g2
Ntp923
Rp924
(dp925
g11
(lp926
g62
ag63
asg14
I00
sg15
I00
sg16
I23
sg17
S'/cvmfs/cms.cern.ch/slc6_amd64_gcc491/cms/cmssw-patch/CMSSW_7_4_4_patch2/python/RecoParticleFlow/PFClusterProducer/particleFlowRecHitHBHE_cfi.py'
p927
sg62
g0
(g65
g20
(lp928
g0
(g67
g2
Ntp929
Rp930
(dp931
g14
I00
sg32
I01
sg15
I00
sg71
g0
(g65
g20
(lp932
g0
(g67
g2
Ntp933
Rp934
(dp935
g14
I00
sg32
I01
sg76
g0
(g77
g2
Ntp936
Rp937
(dp938
g14
I00
sg32
I01
sg81
g82
sg15
I00
sbsg11
(lp939
g84
ag76
asg84
g0
(g85
g2
Ntp940
Rp941
(dp942
g14
I00
sg32
I01
sg81
F0.8
sg15
I00
sbsg15
I00
sbag0
(g67
g2
Ntp943
Rp944
(dp945
g14
I00
sg32
I01
sg15
I00
sS'maxSeverities'
p946
g0
(cFWCore.ParameterSet.Types
vint32
p947
g20
(lp948
I11
atp949
Rp950
(dp951
g14
I00
sg32
I01
sg15
I00
sbsS'cleaningThresholds'
p952
g0
(cFWCore.ParameterSet.Types
vdouble
p953
g20
(lp954
F0.0
atp955
Rp956
(dp957
g14
I00
sg32
I01
sg15
I00
sbsS'flags'
p958
g0
(g19
g20
(lp959
S'Standard'
p960
atp961
Rp962
(dp963
g14
I00
sg32
I01
sg15
I00
sg33
I1
sbsg11
(lp964
g946
ag952
ag958
ag76
asg76
g0
(g77
g2
Ntp965
Rp966
(dp967
g14
I00
sg32
I01
sg81
S'PFRecHitQTestHCALChannel'
p968
sg15
I00
sbsbatp969
Rp970
(dp971
g14
I00
sg32
I01
sg15
I00
sg33
I1
sbsg92
g0
(g93
g2
Ntp972
Rp973
(dp974
g14
I00
sg32
I01
sg15
I00
sg97
S'hbhereco'
p975
sg99
g100
sg101
g100
sbsg11
(lp976
g92
ag76
ag71
asg76
g0
(g77
g2
Ntp977
Rp978
(dp979
g14
I00
sg32
I01
sg81
S'PFHBHERecHitCreator'
p980
sg15
I00
sbsbatp981
Rp982
(dp983
g14
I00
sg32
I01
sg15
I00
sg33
I1
sbsg34
S'particleFlowRecHitHBHE'
p984
sg63
g0
(g67
g2
Ntp985
Rp986
(dp987
g14
I00
sg32
I01
sS'timeResolutionCalc'
p988
g0
(g67
g2
Ntp989
Rp990
(dp991
g14
I00
sg32
I01
sg522
g0
(g85
g2
Ntp992
Rp993
(dp994
g14
I00
sg32
I01
sg81
F0.0
sg15
I00
sbsg15
I00
sg526
g0
(g85
g2
Ntp995
Rp996
(dp997
g14
I00
sg32
I01
sg81
F1.92
sg15
I00
sbsg530
g0
(g85
g2
Ntp998
Rp999
(dp1000
g14
I00
sg32
I01
sg81
F6.0
sg15
I00
sbsg534
g0
(g85
g2
Ntp1001
Rp1002
(dp1003
g14
I00
sg32
I01
sg81
F0.0
sg15
I00
sbsg538
g0
(g85
g2
Ntp1004
Rp1005
(dp1006
g14
I00
sg32
I01
sg81
F8.64
sg15
I00
sbsg542
g0
(g85
g2
Ntp1007
Rp1008
(dp1009
g14
I00
sg32
I01
sg81
F2.0
sg15
I00
sbsg11
(lp1010
g530
ag522
ag526
ag538
ag534
ag542
ag547
asg547
g0
(g85
g2
Ntp1011
Rp1012
(dp1013
g14
I00
sg32
I01
sg81
F8.0
sg15
I00
sbsbsg15
I00
sg11
(lp1014
S'sigmaCut'
p1015
ag988
ag76
asg1015
g0
(g85
g2
Ntp1016
Rp1017
(dp1018
g14
I00
sg32
I01
sg81
F4.0
sg15
I00
sbsg76
g0
(g77
g2
Ntp1019
Rp1020
(dp1021
g14
I00
sg32
I01
sg81
S'PFRecHitHCALNavigator'
p1022
sg15
I00
sbsbsg35
g120
sbag0
(g57
g2
Ntp1023
Rp1024
(dp1025
g11
(lp1026
g62
ag63
asg14
I00
sg15
I00
sg16
I40
sg17
S'/cvmfs/cms.cern.ch/slc6_amd64_gcc491/cms/cmssw-patch/CMSSW_7_4_4_patch2/python/RecoParticleFlow/PFClusterProducer/particleFlowRecHitHF_cfi.py'
p1027
sg62
g0
(g65
g20
(lp1028
g0
(g67
g2
Ntp1029
Rp1030
(dp1031
g14
I00
sg32
I01
sS'LongFibre_Cut'
p1032
g0
(g85
g2
Ntp1033
Rp1034
(dp1035
g14
I00
sg32
I01
sg81
F120.0
sg15
I00
sbsg15
I00
sg71
g0
(g65
g20
(lp1036
g0
(g67
g2
Ntp1037
Rp1038
(dp1039
g14
I00
sg32
I01
sg15
I00
sg946
g0
(g947
g20
(lp1040
I11
aI9
aI9
atp1041
Rp1042
(dp1043
g14
I00
sg32
I01
sg15
I00
sbsg952
g0
(g953
g20
(lp1044
F0.0
aF120.0
aF60.0
atp1045
Rp1046
(dp1047
g14
I00
sg32
I01
sg15
I00
sbsg958
g0
(g19
g20
(lp1048
g960
aS'HFLong'
p1049
aS'HFShort'
p1050
atp1051
Rp1052
(dp1053
g14
I00
sg32
I01
sg15
I00
sg33
I1
sbsg11
(lp1054
g946
ag952
ag958
ag76
asg76
g0
(g77
g2
Ntp1055
Rp1056
(dp1057
g14
I00
sg32
I01
sg81
g968
sg15
I00
sbsbag0
(g67
g2
Ntp1058
Rp1059
(dp1060
g14
I00
sg32
I01
sg15
I00
sg11
(lp1061
g76
aS'cuts'
p1062
asg1062
g0
(g65
g20
(lp1063
g0
(g67
g2
Ntp1064
Rp1065
(dp1066
g14
I00
sg32
I01
sg15
I00
sS'depth'
p1067
g0
(g166
g2
Ntp1068
Rp1069
(dp1070
g14
I00
sg32
I01
sg81
I1
sg15
I00
sbsg11
(lp1071
g84
ag1067
asg84
g0
(g85
g2
Ntp1072
Rp1073
(dp1074
g14
I00
sg32
I01
sg81
F1.2
sg15
I00
sbsbag0
(g67
g2
Ntp1075
Rp1076
(dp1077
g14
I00
sg32
I01
sg15
I00
sg1067
g0
(g166
g2
Ntp1078
Rp1079
(dp1080
g14
I00
sg32
I01
sg81
I2
sg15
I00
sbsg11
(lp1081
g84
ag1067
asg84
g0
(g85
g2
Ntp1082
Rp1083
(dp1084
g14
I00
sg32
I01
sg81
F1.8
sg15
I00
sbsbatp1085
Rp1086
(dp1087
g14
I00
sg32
I01
sg15
I00
sg33
I1
sbsg76
g0
(g77
g2
Ntp1088
Rp1089
(dp1090
g14
I00
sg32
I01
sg81
S'PFRecHitQTestHCALThresholdVsDepth'
p1091
sg15
I00
sbsbatp1092
Rp1093
(dp1094
g14
I00
sg32
I01
sg15
I00
sg33
I1
sbsg92
g0
(g93
g2
Ntp1095
Rp1096
(dp1097
g14
I00
sg32
I01
sg15
I00
sg97
S'hfreco'
p1098
sg99
g100
sg101
g100
sbsS'LongFibre_Fraction'
p1099
g0
(g85
g2
Ntp1100
Rp1101
(dp1102
g14
I00
sg32
I01
sg81
F0.1
sg15
I00
sbsS'HADDepthCorrection'
p1103
g0
(g85
g2
Ntp1104
Rp1105
(dp1106
g14
I00
sg32
I01
sg81
F25.0
sg15
I00
sbsg76
g0
(g77
g2
Ntp1107
Rp1108
(dp1109
g14
I00
sg32
I01
sg81
S'PFHFRecHitCreator'
p1110
sg15
I00
sbsS'EMDepthCorrection'
p1111
g0
(g85
g2
Ntp1112
Rp1113
(dp1114
g14
I00
sg32
I01
sg81
F22.0
sg15
I00
sbsS'thresh_HF'
p1115
g0
(g85
g2
Ntp1116
Rp1117
(dp1118
g14
I00
sg32
I01
sg81
F0.4
sg15
I00
sbsg11
(lp1119
g1103
ag92
ag1032
aS'ShortFibre_Cut'
p1120
ag71
ag1099
ag1111
ag1115
aS'ShortFibre_Fraction'
p1121
aS'HFCalib29'
p1122
ag76
asg1121
g0
(g85
g2
Ntp1123
Rp1124
(dp1125
g14
I00
sg32
I01
sg81
F0.01
sg15
I00
sbsg1122
g0
(g85
g2
Ntp1126
Rp1127
(dp1128
g14
I00
sg32
I01
sg81
F1.07
sg15
I00
sbsg1120
g0
(g85
g2
Ntp1129
Rp1130
(dp1131
g14
I00
sg32
I01
sg81
F60.0
sg15
I00
sbsbatp1132
Rp1133
(dp1134
g14
I00
sg32
I01
sg15
I00
sg33
I1
sbsg34
S'particleFlowRecHitHF'
p1135
sg63
g0
(g67
g2
Ntp1136
Rp1137
(dp1138
g14
I00
sg32
I01
sg15
I00
sg11
(lp1139
g447
ag76
ag448
asg447
g0
(g67
g2
Ntp1140
Rp1141
(dp1142
g14
I00
sg32
I01
sg15
I00
sg11
(lp1143
sbsg448
g0
(g67
g2
Ntp1144
Rp1145
(dp1146
g14
I00
sg32
I01
sg15
I00
sg11
(lp1147
sbsg76
g0
(g77
g2
Ntp1148
Rp1149
(dp1150
g14
I00
sg32
I01
sg81
g1022
sg15
I00
sbsbsg35
g120
sbag0
(g57
g2
Ntp1151
Rp1152
(dp1153
g11
(lp1154
g125
ag126
ag127
ag128
ag129
ag130
ag131
asg14
I00
sg126
g0
(g67
g2
Ntp1155
Rp1156
(dp1157
g14
I00
sg32
I01
sg15
I00
sg11
(lp1158
sbsg15
I00
sg125
g0
(g67
g2
Ntp1159
Rp1160
(dp1161
g14
I00
sg32
I01
sg139
g0
(g85
g2
Ntp1162
Rp1163
(dp1164
g14
I00
sg32
I01
sg81
F1e-20
sg15
I00
sbsg148
g0
(g77
g2
Ntp1165
Rp1166
(dp1167
g14
I00
sg32
I01
sg81
g152
sg15
I00
sbsg15
I00
sS'timeSigmaEB'
p1168
g0
(g85
g2
Ntp1169
Rp1170
(dp1171
g14
I00
sg32
I01
sg81
F10.0
sg15
I00
sbsS'clusterTimeResFromSeed'
p1172
g0
(g219
g2
Ntp1173
Rp1174
(dp1175
g14
I00
sg32
I01
sg81
I00
sg15
I00
sbsg153
g0
(g85
g2
Ntp1176
Rp1177
(dp1178
g14
I00
sg32
I01
sg81
F10.0
sg15
I00
sbsS'maxNSigmaTime'
p1179
g0
(g85
g2
Ntp1180
Rp1181
(dp1182
g14
I00
sg32
I01
sg81
F10.0
sg15
I00
sbsS'minChi2Prob'
p1183
g0
(g85
g2
Ntp1184
Rp1185
(dp1186
g14
I00
sg32
I01
sg81
F0.0
sg15
I00
sbsg508
g0
(g67
g2
Ntp1187
Rp1188
(dp1189
g14
I00
sg32
I01
sg161
g0
(g85
g2
Ntp1190
Rp1191
(dp1192
g14
I00
sg32
I01
sg81
F0.8
sg15
I00
sbsg165
g0
(g166
g2
Ntp1193
Rp1194
(dp1195
g14
I00
sg32
I01
sg81
I-1
sg15
I00
sbsg15
I00
sg170
g0
(g85
g2
Ntp1196
Rp1197
(dp1198
g14
I00
sg32
I01
sg81
F1e-09
sg15
I00
sbsg11
(lp1199
g175
ag170
ag161
ag165
ag148
asg175
g0
(g85
g2
Ntp1200
Rp1201
(dp1202
g14
I00
sg32
I01
sg81
F1e-09
sg15
I00
sbsg148
g0
(g77
g2
Ntp1203
Rp1204
(dp1205
g14
I00
sg32
I01
sg81
g182
sg15
I00
sbsbsg157
g0
(g67
g2
Ntp1206
Rp1207
(dp1208
g14
I00
sg32
I01
sg161
g0
(g85
g2
Ntp1209
Rp1210
(dp1211
g14
I00
sg32
I01
sg81
F0.8
sg15
I00
sbsg165
g0
(g166
g2
Ntp1212
Rp1213
(dp1214
g14
I00
sg32
I01
sg81
I5
sg15
I00
sbsg15
I00
sg170
g0
(g85
g2
Ntp1215
Rp1216
(dp1217
g14
I00
sg32
I01
sg81
F1e-09
sg15
I00
sbsg11
(lp1218
g175
ag170
ag161
ag165
ag148
asg175
g0
(g85
g2
Ntp1219
Rp1220
(dp1221
g14
I00
sg32
I01
sg81
F1e-09
sg15
I00
sbsg148
g0
(g77
g2
Ntp1222
Rp1223
(dp1224
g14
I00
sg32
I01
sg81
g182
sg15
I00
sbsbsg143
g0
(g144
g2
Ntp1225
Rp1226
(dp1227
g14
I00
sg32
I01
sg81
I50
sg15
I00
sbsg212
g0
(g85
g2
Ntp1228
Rp1229
(dp1230
g14
I00
sg32
I01
sg81
F1e-08
sg15
I00
sbsS'timeSigmaEE'
p1231
g0
(g85
g2
Ntp1232
Rp1233
(dp1234
g14
I00
sg32
I01
sg81
F10.0
sg15
I00
sbsg183
g0
(g65
g20
(lp1235
g0
(g67
g2
Ntp1236
Rp1237
(dp1238
g14
I00
sg32
I01
sg15
I00
sg188
g0
(g85
g2
Ntp1239
Rp1240
(dp1241
g14
I00
sg32
I01
sg81
F0.8
sg15
I00
sbsg11
(lp1242
g193
ag188
asg193
g0
(g77
g2
Ntp1243
Rp1244
(dp1245
g14
I00
sg32
I01
sg81
S'HCAL_BARREL1'
p1246
sg15
I00
sbsbag0
(g67
g2
Ntp1247
Rp1248
(dp1249
g14
I00
sg32
I01
sg15
I00
sg188
g0
(g85
g2
Ntp1250
Rp1251
(dp1252
g14
I00
sg32
I01
sg81
F0.8
sg15
I00
sbsg11
(lp1253
g193
ag188
asg193
g0
(g77
g2
Ntp1254
Rp1255
(dp1256
g14
I00
sg32
I01
sg81
S'HCAL_ENDCAP'
p1257
sg15
I00
sbsbatp1258
Rp1259
(dp1260
g14
I00
sg32
I01
sg15
I00
sg33
I1
sbsg11
(lp1261
g1172
ag1231
ag139
ag143
ag148
ag1168
ag518
ag153
ag157
ag1179
ag1183
ag508
ag183
ag212
ag554
ag217
ag218
asg554
g0
(g67
g2
Ntp1262
Rp1263
(dp1264
g14
I00
sg32
I01
sg522
g0
(g85
g2
Ntp1265
Rp1266
(dp1267
g14
I00
sg32
I01
sg81
I8
sg15
I00
sbsg15
I00
sg526
g0
(g85
g2
Ntp1268
Rp1269
(dp1270
g14
I00
sg32
I01
sg81
F2.82
sg15
I00
sbsg530
g0
(g85
g2
Ntp1271
Rp1272
(dp1273
g14
I00
sg32
I01
sg81
F4.24
sg15
I00
sbsg534
g0
(g85
g2
Ntp1274
Rp1275
(dp1276
g14
I00
sg32
I01
sg81
F0.0
sg15
I00
sbsg538
g0
(g85
g2
Ntp1277
Rp1278
(dp1279
g14
I00
sg32
I01
sg81
F21.86
sg15
I00
sbsg542
g0
(g85
g2
Ntp1280
Rp1281
(dp1282
g14
I00
sg32
I01
sg81
F6.0
sg15
I00
sbsg11
(lp1283
g530
ag522
ag526
ag538
ag534
ag542
ag547
asg547
g0
(g85
g2
Ntp1284
Rp1285
(dp1286
g14
I00
sg32
I01
sg81
F15.0
sg15
I00
sbsbsg218
g0
(g219
g2
Ntp1287
Rp1288
(dp1289
g14
I00
sg32
I01
sg81
I01
sg15
I00
sbsg518
g1263
sg217
g0
(g85
g2
Ntp1290
Rp1291
(dp1292
g14
I00
sg32
I01
sg81
F1e-07
sg15
I00
sbsbsg17
S'/cvmfs/cms.cern.ch/slc6_amd64_gcc491/cms/cmssw-patch/CMSSW_7_4_4_patch2/python/RecoParticleFlow/PFClusterProducer/particleFlowClusterHBHE_cfi.py'
p1293
sg128
g0
(g67
g2
Ntp1294
Rp1295
(dp1296
g14
I00
sg32
I01
sg15
I00
sg11
(lp1297
sbsg129
g0
(g65
g20
(lp1298
tp1299
Rp1300
(dp1301
g14
I00
sg32
I01
sg15
I00
sg33
I1
sbsg16
I80
sg130
g0
(g67
g2
Ntp1302
Rp1303
(dp1304
g14
I00
sg32
I01
sg148
g0
(g77
g2
Ntp1305
Rp1306
(dp1307
g14
I00
sg32
I01
sg81
g241
sg15
I00
sbsg15
I00
sg242
g0
(g65
g20
(lp1308
g0
(g67
g2
Ntp1309
Rp1310
(dp1311
g14
I00
sg32
I01
sg247
g0
(g85
g2
Ntp1312
Rp1313
(dp1314
g14
I00
sg32
I01
sg81
F1.0
sg15
I00
sbsg15
I00
sg251
g0
(g85
g2
Ntp1315
Rp1316
(dp1317
g14
I00
sg32
I01
sg81
F0.0
sg15
I00
sbsg11
(lp1318
g247
ag251
ag193
asg193
g0
(g77
g2
Ntp1319
Rp1320
(dp1321
g14
I00
sg32
I01
sg81
g1246
sg15
I00
sbsbag0
(g67
g2
Ntp1322
Rp1323
(dp1324
g14
I00
sg32
I01
sg247
g0
(g85
g2
Ntp1325
Rp1326
(dp1327
g14
I00
sg32
I01
sg81
F1.1
sg15
I00
sbsg15
I00
sg251
g0
(g85
g2
Ntp1328
Rp1329
(dp1330
g14
I00
sg32
I01
sg81
F0.0
sg15
I00
sbsg11
(lp1331
g247
ag251
ag193
asg193
g0
(g77
g2
Ntp1332
Rp1333
(dp1334
g14
I00
sg32
I01
sg81
g1257
sg15
I00
sbsbatp1335
Rp1336
(dp1337
g14
I00
sg32
I01
sg15
I00
sg33
I1
sbsg11
(lp1338
g148
ag242
ag276
asg276
g0
(g166
g2
Ntp1339
Rp1340
(dp1341
g14
I00
sg32
I01
sg81
I4
sg15
I00
sbsbsg131
g0
(g93
g2
Ntp1342
Rp1343
(dp1344
g14
I00
sg32
I01
sg15
I00
sg97
g984
sg99
g100
sg101
g100
sbsg34
S'particleFlowClusterHBHE'
p1345
sg35
g284
sg127
g0
(g67
g2
Ntp1346
Rp1347
(dp1348
g14
I00
sg32
I01
sg148
g0
(g77
g2
Ntp1349
Rp1350
(dp1351
g14
I00
sg32
I01
sg81
g291
sg15
I00
sbsg15
I00
sg242
g0
(g65
g20
(lp1352
g0
(g67
g2
Ntp1353
Rp1354
(dp1355
g14
I00
sg32
I01
sg15
I00
sg11
(lp1356
g193
ag297
ag298
asg193
g0
(g77
g2
Ntp1357
Rp1358
(dp1359
g14
I00
sg32
I01
sg81
g1246
sg15
I00
sbsg297
g0
(g85
g2
Ntp1360
Rp1361
(dp1362
g14
I00
sg32
I01
sg81
F0.0
sg15
I00
sbsg298
g0
(g85
g2
Ntp1363
Rp1364
(dp1365
g14
I00
sg32
I01
sg81
F0.8
sg15
I00
sbsbag0
(g67
g2
Ntp1366
Rp1367
(dp1368
g14
I00
sg32
I01
sg15
I00
sg11
(lp1369
g193
ag297
ag298
asg193
g0
(g77
g2
Ntp1370
Rp1371
(dp1372
g14
I00
sg32
I01
sg81
g1257
sg15
I00
sbsg297
g0
(g85
g2
Ntp1373
Rp1374
(dp1375
g14
I00
sg32
I01
sg81
F0.0
sg15
I00
sbsg298
g0
(g85
g2
Ntp1376
Rp1377
(dp1378
g14
I00
sg32
I01
sg81
F0.8
sg15
I00
sbsbatp1379
Rp1380
(dp1381
g14
I00
sg32
I01
sg15
I00
sg33
I1
sbsg324
g0
(g219
g2
Ntp1382
Rp1383
(dp1384
g14
I00
sg32
I01
sg81
I01
sg15
I00
sbsg11
(lp1385
g148
ag242
ag324
asbsbag0
(g57
g2
Ntp1386
Rp1387
(dp1388
g11
(lp1389
g125
ag126
ag127
ag128
ag129
ag130
ag131
asg14
I00
sg126
g0
(g67
g2
Ntp1390
Rp1391
(dp1392
g14
I00
sg32
I01
sg15
I00
sg11
(lp1393
sbsg15
I00
sg125
g0
(g67
g2
Ntp1394
Rp1395
(dp1396
g14
I00
sg32
I01
sg143
g0
(g144
g2
Ntp1397
Rp1398
(dp1399
g14
I00
sg32
I01
sg81
I50
sg15
I00
sbsg148
g0
(g77
g2
Ntp1400
Rp1401
(dp1402
g14
I00
sg32
I01
sg81
g152
sg15
I00
sbsg15
I00
sg508
g0
(g67
g2
Ntp1403
Rp1404
(dp1405
g14
I00
sg32
I01
sg161
g0
(g85
g2
Ntp1406
Rp1407
(dp1408
g14
I00
sg32
I01
sg81
F0.8
sg15
I00
sbsg165
g0
(g166
g2
Ntp1409
Rp1410
(dp1411
g14
I00
sg32
I01
sg81
I-1
sg15
I00
sbsg15
I00
sg170
g0
(g85
g2
Ntp1412
Rp1413
(dp1414
g14
I00
sg32
I01
sg81
F1e-09
sg15
I00
sbsg11
(lp1415
g175
ag170
ag161
ag165
ag148
asg175
g0
(g85
g2
Ntp1416
Rp1417
(dp1418
g14
I00
sg32
I01
sg81
F1e-09
sg15
I00
sbsg148
g0
(g77
g2
Ntp1419
Rp1420
(dp1421
g14
I00
sg32
I01
sg81
g182
sg15
I00
sbsbsg153
g0
(g85
g2
Ntp1422
Rp1423
(dp1424
g14
I00
sg32
I01
sg81
F10.0
sg15
I00
sbsg183
g0
(g65
g20
(lp1425
g0
(g67
g2
Ntp1426
Rp1427
(dp1428
g14
I00
sg32
I01
sg15
I00
sg188
g0
(g85
g2
Ntp1429
Rp1430
(dp1431
g14
I00
sg32
I01
sg81
F0.8
sg15
I00
sbsg11
(lp1432
g193
ag188
asg193
g0
(g77
g2
Ntp1433
Rp1434
(dp1435
g14
I00
sg32
I01
sg81
S'HF_EM'
p1436
sg15
I00
sbsbag0
(g67
g2
Ntp1437
Rp1438
(dp1439
g14
I00
sg32
I01
sg15
I00
sg188
g0
(g85
g2
Ntp1440
Rp1441
(dp1442
g14
I00
sg32
I01
sg81
F0.8
sg15
I00
sbsg11
(lp1443
g193
ag188
asg193
g0
(g77
g2
Ntp1444
Rp1445
(dp1446
g14
I00
sg32
I01
sg81
S'HF_HAD'
p1447
sg15
I00
sbsbatp1448
Rp1449
(dp1450
g14
I00
sg32
I01
sg15
I00
sg33
I1
sbsg157
g0
(g67
g2
Ntp1451
Rp1452
(dp1453
g14
I00
sg32
I01
sg161
g0
(g85
g2
Ntp1454
Rp1455
(dp1456
g14
I00
sg32
I01
sg81
F0.8
sg15
I00
sbsg165
g0
(g166
g2
Ntp1457
Rp1458
(dp1459
g14
I00
sg32
I01
sg81
I5
sg15
I00
sbsg15
I00
sg170
g0
(g85
g2
Ntp1460
Rp1461
(dp1462
g14
I00
sg32
I01
sg81
F1e-09
sg15
I00
sbsg11
(lp1463
g175
ag170
ag161
ag165
ag148
asg175
g0
(g85
g2
Ntp1464
Rp1465
(dp1466
g14
I00
sg32
I01
sg81
F1e-09
sg15
I00
sbsg148
g0
(g77
g2
Ntp1467
Rp1468
(dp1469
g14
I00
sg32
I01
sg81
g182
sg15
I00
sbsbsg139
g0
(g85
g2
Ntp1470
Rp1471
(dp1472
g14
I00
sg32
I01
sg81
F1e-20
sg15
I00
sbsg212
g0
(g85
g2
Ntp1473
Rp1474
(dp1475
g14
I00
sg32
I01
sg81
F1e-08
sg15
I00
sbsg11
(lp1476
g148
ag143
ag139
ag508
ag153
ag157
ag183
ag212
ag217
ag218
asg218
g0
(g219
g2
Ntp1477
Rp1478
(dp1479
g14
I00
sg32
I01
sg81
I01
sg15
I00
sbsg217
g0
(g85
g2
Ntp1480
Rp1481
(dp1482
g14
I00
sg32
I01
sg81
F1e-07
sg15
I00
sbsbsg17
S'/cvmfs/cms.cern.ch/slc6_amd64_gcc491/cms/cmssw-patch/CMSSW_7_4_4_patch2/python/RecoParticleFlow/PFClusterProducer/particleFlowClusterHF_cfi.py'
p1483
sg128
g0
(g67
g2
Ntp1484
Rp1485
(dp1486
g14
I00
sg32
I01
sg15
I00
sg11
(lp1487
sbsg129
g0
(g65
g20
(lp1488
g0
(g67
g2
Ntp1489
Rp1490
(dp1491
g14
I00
sg32
I01
sg148
g0
(g77
g2
Ntp1492
Rp1493
(dp1494
g14
I00
sg32
I01
sg81
g711
sg15
I00
sbsg15
I00
sg712
g0
(g65
g20
(lp1495
g0
(g67
g2
Ntp1496
Rp1497
(dp1498
g14
I00
sg32
I01
sg717
g0
(g85
g2
Ntp1499
Rp1500
(dp1501
g14
I00
sg32
I01
sg81
F0.11
sg15
I00
sbsg15
I00
sg721
g0
(g85
g2
Ntp1502
Rp1503
(dp1504
g14
I00
sg32
I01
sg81
F-0.19
sg15
I00
sbsg725
g0
(g85
g2
Ntp1505
Rp1506
(dp1507
g14
I00
sg32
I01
sg81
F1.0
sg15
I00
sbsg729
g0
(g85
g2
Ntp1508
Rp1509
(dp1510
g14
I00
sg32
I01
sg81
F1.0
sg15
I00
sbsg733
g0
(g85
g2
Ntp1511
Rp1512
(dp1513
g14
I00
sg32
I01
sg81
F80.0
sg15
I00
sbsg737
g0
(g85
g2
Ntp1514
Rp1515
(dp1516
g14
I00
sg32
I01
sg81
F1000000000.0
sg15
I00
sbsg11
(lp1517
g717
ag721
ag725
ag729
ag737
ag733
ag742
ag193
asg742
g0
(g85
g2
Ntp1518
Rp1519
(dp1520
g14
I00
sg32
I01
sg81
F-1.0
sg15
I00
sbsg193
g0
(g77
g2
Ntp1521
Rp1522
(dp1523
g14
I00
sg32
I01
sg81
g1436
sg15
I00
sbsbag0
(g67
g2
Ntp1524
Rp1525
(dp1526
g14
I00
sg32
I01
sg717
g0
(g85
g2
Ntp1527
Rp1528
(dp1529
g14
I00
sg32
I01
sg81
F0.045
sg15
I00
sbsg15
I00
sg721
g0
(g85
g2
Ntp1530
Rp1531
(dp1532
g14
I00
sg32
I01
sg81
F-0.08
sg15
I00
sbsg725
g0
(g85
g2
Ntp1533
Rp1534
(dp1535
g14
I00
sg32
I01
sg81
F1.0
sg15
I00
sbsg729
g0
(g85
g2
Ntp1536
Rp1537
(dp1538
g14
I00
sg32
I01
sg81
F1.0
sg15
I00
sbsg733
g0
(g85
g2
Ntp1539
Rp1540
(dp1541
g14
I00
sg32
I01
sg81
F120.0
sg15
I00
sbsg737
g0
(g85
g2
Ntp1542
Rp1543
(dp1544
g14
I00
sg32
I01
sg81
F1000000000.0
sg15
I00
sbsg11
(lp1545
g717
ag721
ag725
ag729
ag737
ag733
ag742
ag193
asg742
g0
(g85
g2
Ntp1546
Rp1547
(dp1548
g14
I00
sg32
I01
sg81
F-1.0
sg15
I00
sbsg193
g0
(g77
g2
Ntp1549
Rp1550
(dp1551
g14
I00
sg32
I01
sg81
g1447
sg15
I00
sbsbatp1552
Rp1553
(dp1554
g14
I00
sg32
I01
sg15
I00
sg33
I1
sbsg11
(lp1555
g148
ag712
asbatp1556
Rp1557
(dp1558
g14
I00
sg32
I01
sg15
I00
sg33
I1
sbsg16
I112
sg130
g0
(g67
g2
Ntp1559
Rp1560
(dp1561
g14
I00
sg32
I01
sg148
g0
(g77
g2
Ntp1562
Rp1563
(dp1564
g14
I00
sg32
I01
sg81
g241
sg15
I00
sbsg15
I00
sg242
g0
(g65
g20
(lp1565
g0
(g67
g2
Ntp1566
Rp1567
(dp1568
g14
I00
sg32
I01
sg247
g0
(g85
g2
Ntp1569
Rp1570
(dp1571
g14
I00
sg32
I01
sg81
F1.4
sg15
I00
sbsg15
I00
sg251
g0
(g85
g2
Ntp1572
Rp1573
(dp1574
g14
I00
sg32
I01
sg81
F0.0
sg15
I00
sbsg11
(lp1575
g247
ag251
ag193
asg193
g0
(g77
g2
Ntp1576
Rp1577
(dp1578
g14
I00
sg32
I01
sg81
g1436
sg15
I00
sbsbag0
(g67
g2
Ntp1579
Rp1580
(dp1581
g14
I00
sg32
I01
sg247
g0
(g85
g2
Ntp1582
Rp1583
(dp1584
g14
I00
sg32
I01
sg81
F1.4
sg15
I00
sbsg15
I00
sg251
g0
(g85
g2
Ntp1585
Rp1586
(dp1587
g14
I00
sg32
I01
sg81
F0.0
sg15
I00
sbsg11
(lp1588
g247
ag251
ag193
asg193
g0
(g77
g2
Ntp1589
Rp1590
(dp1591
g14
I00
sg32
I01
sg81
g1447
sg15
I00
sbsbatp1592
Rp1593
(dp1594
g14
I00
sg32
I01
sg15
I00
sg33
I1
sbsg11
(lp1595
g148
ag242
ag276
asg276
g0
(g166
g2
Ntp1596
Rp1597
(dp1598
g14
I00
sg32
I01
sg81
I0
sg15
I00
sbsbsg131
g0
(g93
g2
Ntp1599
Rp1600
(dp1601
g14
I00
sg32
I01
sg15
I00
sg97
g1135
sg99
g100
sg101
g100
sbsg34
S'particleFlowClusterHF'
p1602
sg35
g284
sg127
g0
(g67
g2
Ntp1603
Rp1604
(dp1605
g14
I00
sg32
I01
sg148
g0
(g77
g2
Ntp1606
Rp1607
(dp1608
g14
I00
sg32
I01
sg81
g291
sg15
I00
sbsg15
I00
sg242
g0
(g65
g20
(lp1609
g0
(g67
g2
Ntp1610
Rp1611
(dp1612
g14
I00
sg32
I01
sg15
I00
sg11
(lp1613
g193
ag297
ag298
asg193
g0
(g77
g2
Ntp1614
Rp1615
(dp1616
g14
I00
sg32
I01
sg81
g1436
sg15
I00
sbsg297
g0
(g85
g2
Ntp1617
Rp1618
(dp1619
g14
I00
sg32
I01
sg81
F0.0
sg15
I00
sbsg298
g0
(g85
g2
Ntp1620
Rp1621
(dp1622
g14
I00
sg32
I01
sg81
F0.8
sg15
I00
sbsbag0
(g67
g2
Ntp1623
Rp1624
(dp1625
g14
I00
sg32
I01
sg15
I00
sg11
(lp1626
g193
ag297
ag298
asg193
g0
(g77
g2
Ntp1627
Rp1628
(dp1629
g14
I00
sg32
I01
sg81
g1447
sg15
I00
sbsg297
g0
(g85
g2
Ntp1630
Rp1631
(dp1632
g14
I00
sg32
I01
sg81
F0.0
sg15
I00
sbsg298
g0
(g85
g2
Ntp1633
Rp1634
(dp1635
g14
I00
sg32
I01
sg81
F0.8
sg15
I00
sbsbatp1636
Rp1637
(dp1638
g14
I00
sg32
I01
sg15
I00
sg33
I1
sbsg324
g0
(g219
g2
Ntp1639
Rp1640
(dp1641
g14
I00
sg32
I01
sg81
I00
sg15
I00
sbsg11
(lp1642
g148
ag242
ag324
asbsbag0
(g57
g2
Ntp1643
Rp1644
(dp1645
g11
(lp1646
g125
ag128
ag126
aS'clustersSource'
p1647
asg14
I00
sg126
g0
(g67
g2
Ntp1648
Rp1649
(dp1650
g14
I00
sg32
I01
sg15
I00
sg11
(lp1651
sbsg15
I00
sg125
g0
(g67
g2
Ntp1652
Rp1653
(dp1654
g14
I00
sg32
I01
sg148
g0
(g77
g2
Ntp1655
Rp1656
(dp1657
g14
I00
sg32
I01
sg81
S'PFMultiDepthClusterizer'
p1658
sg15
I00
sbsg15
I00
sg508
g0
(g67
g2
Ntp1659
Rp1660
(dp1661
g14
I00
sg32
I01
sg161
g0
(g85
g2
Ntp1662
Rp1663
(dp1664
g14
I00
sg32
I01
sg81
F0.8
sg15
I00
sbsg165
g0
(g166
g2
Ntp1665
Rp1666
(dp1667
g14
I00
sg32
I01
sg81
I-1
sg15
I00
sbsg15
I00
sg170
g0
(g85
g2
Ntp1668
Rp1669
(dp1670
g14
I00
sg32
I01
sg81
F1e-09
sg15
I00
sbsg11
(lp1671
g175
ag170
ag161
ag165
ag148
asg175
g0
(g85
g2
Ntp1672
Rp1673
(dp1674
g14
I00
sg32
I01
sg81
F1e-09
sg15
I00
sbsg148
g0
(g77
g2
Ntp1675
Rp1676
(dp1677
g14
I00
sg32
I01
sg81
g182
sg15
I00
sbsbsS'nSigmaPhi'
p1678
g0
(g85
g2
Ntp1679
Rp1680
(dp1681
g14
I00
sg32
I01
sg81
F2.0
sg15
I00
sbsg11
(lp1682
S'nSigmaEta'
p1683
ag1678
ag148
ag508
ag217
asg1683
g0
(g85
g2
Ntp1684
Rp1685
(dp1686
g14
I00
sg32
I01
sg81
F2.0
sg15
I00
sbsg217
g0
(g85
g2
Ntp1687
Rp1688
(dp1689
g14
I00
sg32
I01
sg81
F1e-07
sg15
I00
sbsbsg17
S'/cvmfs/cms.cern.ch/slc6_amd64_gcc491/cms/cmssw-patch/CMSSW_7_4_4_patch2/python/RecoParticleFlow/PFClusterProducer/particleFlowClusterHCAL_cfi.py'
p1690
sg128
g0
(g67
g2
Ntp1691
Rp1692
(dp1693
g14
I00
sg32
I01
sg15
I00
sg11
(lp1694
sbsg1647
g0
(g93
g2
Ntp1695
Rp1696
(dp1697
g14
I00
sg32
I01
sg15
I00
sg97
g1345
sg99
g100
sg101
g100
sbsg16
I20
sg34
S'particleFlowClusterHCAL'
p1698
sg35
S'PFMultiDepthClusterProducer'
p1699
sbasbsg15
I00
sg34
S'pfClusteringHBHEHF'
p1700
sbag0
(g39
g2
Ntp1701
Rp1702
(dp1703
g14
I00
sg43
g0
(g44
g2
Ntp1704
Rp1705
(dp1706
g48
(lp1707
g0
(g57
g2
Ntp1708
Rp1709
(dp1710
g11
(lp1711
g62
ag63
asg14
I00
sg15
I00
sg16
I24
sg17
S'/cvmfs/cms.cern.ch/slc6_amd64_gcc491/cms/cmssw-patch/CMSSW_7_4_4_patch2/python/RecoParticleFlow/PFClusterProducer/particleFlowRecHitHO_cfi.py'
p1712
sg62
g0
(g65
g20
(lp1713
g0
(g67
g2
Ntp1714
Rp1715
(dp1716
g14
I00
sg32
I01
sg15
I00
sg71
g0
(g65
g20
(lp1717
g0
(g67
g2
Ntp1718
Rp1719
(dp1720
g14
I00
sg32
I01
sg76
g0
(g77
g2
Ntp1721
Rp1722
(dp1723
g14
I00
sg32
I01
sg81
S'PFRecHitQTestHOThreshold'
p1724
sg15
I00
sbsS'threshold_ring0'
p1725
g0
(g85
g2
Ntp1726
Rp1727
(dp1728
g14
I00
sg32
I01
sg81
F0.4
sg15
I00
sbsS'threshold_ring12'
p1729
g0
(g85
g2
Ntp1730
Rp1731
(dp1732
g14
I00
sg32
I01
sg81
F1.0
sg15
I00
sbsg11
(lp1733
g1725
ag76
ag1729
asg15
I00
sbag0
(g67
g2
Ntp1734
Rp1735
(dp1736
g14
I00
sg32
I01
sg15
I00
sg946
g0
(g947
g20
(lp1737
I11
atp1738
Rp1739
(dp1740
g14
I00
sg32
I01
sg15
I00
sbsg952
g0
(g953
g20
(lp1741
F0.0
atp1742
Rp1743
(dp1744
g14
I00
sg32
I01
sg15
I00
sbsg958
g0
(g19
g20
(lp1745
g960
atp1746
Rp1747
(dp1748
g14
I00
sg32
I01
sg15
I00
sg33
I1
sbsg11
(lp1749
g946
ag952
ag958
ag76
asg76
g0
(g77
g2
Ntp1750
Rp1751
(dp1752
g14
I00
sg32
I01
sg81
g968
sg15
I00
sbsbatp1753
Rp1754
(dp1755
g14
I00
sg32
I01
sg15
I00
sg33
I1
sbsg92
g0
(g93
g2
Ntp1756
Rp1757
(dp1758
g14
I00
sg32
I01
sg15
I00
sg97
S'horeco'
p1759
sg99
g100
sg101
g100
sbsg11
(lp1760
g92
ag76
ag71
asg76
g0
(g77
g2
Ntp1761
Rp1762
(dp1763
g14
I00
sg32
I01
sg81
S'PFHORecHitCreator'
p1764
sg15
I00
sbsbatp1765
Rp1766
(dp1767
g14
I00
sg32
I01
sg15
I00
sg33
I1
sbsg34
S'particleFlowRecHitHO'
p1768
sg63
g0
(g67
g2
Ntp1769
Rp1770
(dp1771
g14
I00
sg32
I01
sg15
I00
sg76
g0
(g77
g2
Ntp1772
Rp1773
(dp1774
g14
I00
sg32
I01
sg81
g1022
sg15
I00
sbsg11
(lp1775
g76
asbsg35
g120
sbag0
(g57
g2
Ntp1776
Rp1777
(dp1778
g11
(lp1779
g125
ag126
ag127
ag128
ag129
ag130
ag131
asg14
I00
sg126
g0
(g67
g2
Ntp1780
Rp1781
(dp1782
g14
I00
sg32
I01
sg15
I00
sg11
(lp1783
sbsg15
I00
sg125
g0
(g67
g2
Ntp1784
Rp1785
(dp1786
g14
I00
sg32
I01
sg143
g0
(g144
g2
Ntp1787
Rp1788
(dp1789
g14
I00
sg32
I01
sg81
I50
sg15
I00
sbsg148
g0
(g77
g2
Ntp1790
Rp1791
(dp1792
g14
I00
sg32
I01
sg81
g152
sg15
I00
sbsg15
I00
sg508
g0
(g67
g2
Ntp1793
Rp1794
(dp1795
g14
I00
sg32
I01
sg161
g0
(g85
g2
Ntp1796
Rp1797
(dp1798
g14
I00
sg32
I01
sg81
F0.5
sg15
I00
sbsg165
g0
(g166
g2
Ntp1799
Rp1800
(dp1801
g14
I00
sg32
I01
sg81
I-1
sg15
I00
sbsg15
I00
sg170
g0
(g85
g2
Ntp1802
Rp1803
(dp1804
g14
I00
sg32
I01
sg81
F1e-09
sg15
I00
sbsg11
(lp1805
g175
ag170
ag161
ag165
ag148
asg175
g0
(g85
g2
Ntp1806
Rp1807
(dp1808
g14
I00
sg32
I01
sg81
F1e-09
sg15
I00
sbsg148
g0
(g77
g2
Ntp1809
Rp1810
(dp1811
g14
I00
sg32
I01
sg81
g182
sg15
I00
sbsbsg153
g0
(g85
g2
Ntp1812
Rp1813
(dp1814
g14
I00
sg32
I01
sg81
F10.0
sg15
I00
sbsg183
g0
(g65
g20
(lp1815
g0
(g67
g2
Ntp1816
Rp1817
(dp1818
g14
I00
sg32
I01
sg15
I00
sg188
g0
(g85
g2
Ntp1819
Rp1820
(dp1821
g14
I00
sg32
I01
sg81
F0.5
sg15
I00
sbsg11
(lp1822
g193
ag188
asg193
g0
(g77
g2
Ntp1823
Rp1824
(dp1825
g14
I00
sg32
I01
sg81
S'HCAL_BARREL2_RING0'
p1826
sg15
I00
sbsbag0
(g67
g2
Ntp1827
Rp1828
(dp1829
g14
I00
sg32
I01
sg15
I00
sg188
g0
(g85
g2
Ntp1830
Rp1831
(dp1832
g14
I00
sg32
I01
sg81
F1.0
sg15
I00
sbsg11
(lp1833
g193
ag188
asg193
g0
(g77
g2
Ntp1834
Rp1835
(dp1836
g14
I00
sg32
I01
sg81
S'HCAL_BARREL2_RING1'
p1837
sg15
I00
sbsbatp1838
Rp1839
(dp1840
g14
I00
sg32
I01
sg15
I00
sg33
I1
sbsg157
g0
(g67
g2
Ntp1841
Rp1842
(dp1843
g14
I00
sg32
I01
sg161
g0
(g85
g2
Ntp1844
Rp1845
(dp1846
g14
I00
sg32
I01
sg81
F0.5
sg15
I00
sbsg165
g0
(g166
g2
Ntp1847
Rp1848
(dp1849
g14
I00
sg32
I01
sg81
I5
sg15
I00
sbsg15
I00
sg170
g0
(g85
g2
Ntp1850
Rp1851
(dp1852
g14
I00
sg32
I01
sg81
F1e-09
sg15
I00
sbsg11
(lp1853
g175
ag170
ag161
ag165
ag148
asg175
g0
(g85
g2
Ntp1854
Rp1855
(dp1856
g14
I00
sg32
I01
sg81
F1e-09
sg15
I00
sbsg148
g0
(g77
g2
Ntp1857
Rp1858
(dp1859
g14
I00
sg32
I01
sg81
g182
sg15
I00
sbsbsg139
g0
(g85
g2
Ntp1860
Rp1861
(dp1862
g14
I00
sg32
I01
sg81
F1e-20
sg15
I00
sbsg212
g0
(g85
g2
Ntp1863
Rp1864
(dp1865
g14
I00
sg32
I01
sg81
F1e-08
sg15
I00
sbsg11
(lp1866
g148
ag143
ag139
ag508
ag153
ag157
ag183
ag212
ag217
ag218
asg218
g0
(g219
g2
Ntp1867
Rp1868
(dp1869
g14
I00
sg32
I01
sg81
I01
sg15
I00
sbsg217
g0
(g85
g2
Ntp1870
Rp1871
(dp1872
g14
I00
sg32
I01
sg81
F1e-07
sg15
I00
sbsbsg17
S'/cvmfs/cms.cern.ch/slc6_amd64_gcc491/cms/cmssw-patch/CMSSW_7_4_4_patch2/python/RecoParticleFlow/PFClusterProducer/particleFlowClusterHO_cfi.py'
p1873
sg128
g0
(g67
g2
Ntp1874
Rp1875
(dp1876
g14
I00
sg32
I01
sg15
I00
sg11
(lp1877
sbsg129
g0
(g65
g20
(lp1878
tp1879
Rp1880
(dp1881
g14
I00
sg32
I01
sg15
I00
sg33
I1
sbsg16
I86
sg130
g0
(g67
g2
Ntp1882
Rp1883
(dp1884
g14
I00
sg32
I01
sg148
g0
(g77
g2
Ntp1885
Rp1886
(dp1887
g14
I00
sg32
I01
sg81
g241
sg15
I00
sbsg15
I00
sg242
g0
(g65
g20
(lp1888
g0
(g67
g2
Ntp1889
Rp1890
(dp1891
g14
I00
sg32
I01
sg247
g0
(g85
g2
Ntp1892
Rp1893
(dp1894
g14
I00
sg32
I01
sg81
F1.0
sg15
I00
sbsg15
I00
sg251
g0
(g85
g2
Ntp1895
Rp1896
(dp1897
g14
I00
sg32
I01
sg81
F0.0
sg15
I00
sbsg11
(lp1898
g247
ag251
ag193
asg193
g0
(g77
g2
Ntp1899
Rp1900
(dp1901
g14
I00
sg32
I01
sg81
g1826
sg15
I00
sbsbag0
(g67
g2
Ntp1902
Rp1903
(dp1904
g14
I00
sg32
I01
sg247
g0
(g85
g2
Ntp1905
Rp1906
(dp1907
g14
I00
sg32
I01
sg81
F3.1
sg15
I00
sbsg15
I00
sg251
g0
(g85
g2
Ntp1908
Rp1909
(dp1910
g14
I00
sg32
I01
sg81
F0.0
sg15
I00
sbsg11
(lp1911
g247
ag251
ag193
asg193
g0
(g77
g2
Ntp1912
Rp1913
(dp1914
g14
I00
sg32
I01
sg81
g1837
sg15
I00
sbsbatp1915
Rp1916
(dp1917
g14
I00
sg32
I01
sg15
I00
sg33
I1
sbsg11
(lp1918
g148
ag242
ag276
asg276
g0
(g166
g2
Ntp1919
Rp1920
(dp1921
g14
I00
sg32
I01
sg81
I4
sg15
I00
sbsbsg131
g0
(g93
g2
Ntp1922
Rp1923
(dp1924
g14
I00
sg32
I01
sg15
I00
sg97
g1768
sg99
g100
sg101
g100
sbsg34
S'particleFlowClusterHO'
p1925
sg35
g284
sg127
g0
(g67
g2
Ntp1926
Rp1927
(dp1928
g14
I00
sg32
I01
sg148
g0
(g77
g2
Ntp1929
Rp1930
(dp1931
g14
I00
sg32
I01
sg81
g291
sg15
I00
sbsg15
I00
sg242
g0
(g65
g20
(lp1932
g0
(g67
g2
Ntp1933
Rp1934
(dp1935
g14
I00
sg32
I01
sg15
I00
sg11
(lp1936
g193
ag297
ag298
asg193
g0
(g77
g2
Ntp1937
Rp1938
(dp1939
g14
I00
sg32
I01
sg81
g1826
sg15
I00
sbsg297
g0
(g85
g2
Ntp1940
Rp1941
(dp1942
g14
I00
sg32
I01
sg81
F0.0
sg15
I00
sbsg298
g0
(g85
g2
Ntp1943
Rp1944
(dp1945
g14
I00
sg32
I01
sg81
F0.5
sg15
I00
sbsbag0
(g67
g2
Ntp1946
Rp1947
(dp1948
g14
I00
sg32
I01
sg15
I00
sg11
(lp1949
g193
ag297
ag298
asg193
g0
(g77
g2
Ntp1950
Rp1951
(dp1952
g14
I00
sg32
I01
sg81
g1837
sg15
I00
sbsg297
g0
(g85
g2
Ntp1953
Rp1954
(dp1955
g14
I00
sg32
I01
sg81
F0.0
sg15
I00
sbsg298
g0
(g85
g2
Ntp1956
Rp1957
(dp1958
g14
I00
sg32
I01
sg81
F1.0
sg15
I00
sbsbatp1959
Rp1960
(dp1961
g14
I00
sg32
I01
sg15
I00
sg33
I1
sbsg324
g0
(g219
g2
Ntp1962
Rp1963
(dp1964
g14
I00
sg32
I01
sg81
I01
sg15
I00
sbsg11
(lp1965
g148
ag242
ag324
asbsbasbsg15
I00
sg34
S'pfClusteringHO'
p1966
sbasbsg15
I00
sg34
g38
sbsg915
g331
sg329
g51
sg1966
g1702
sg1700
g917
sS'pfClusterRefsForJets_step'
p1967
g0
(g39
g2
Ntp1968
Rp1969
(dp1970
g14
I00
sg43
g0
(g44
g2
Ntp1971
Rp1972
(dp1973
g48
(lp1974
g338
ag924
ag1024
ag1709
ag462
ag869
ag1152
ag1644
ag1387
ag1777
ag0
(g57
g2
Ntp1975
Rp1976
(dp1977
g11
(lp1978
g92
aS'particleType'
p1979
asg14
I00
sg1979
g0
(g77
g2
Ntp1980
Rp1981
(dp1982
g14
I00
sg32
I01
sg81
S'pi+'
p1983
sg15
I00
sbsg15
I00
sg92
g0
(g93
g2
Ntp1984
Rp1985
(dp1986
g14
I00
sg32
I01
sg15
I00
sg97
g1698
sg99
g100
sg101
g100
sbsg17
S'/afs/cern.ch/user/c/cheidegg/p/CMSSW_7_4_4_patch2/src/MetScanning/skim/python/skim.py'
p1987
sg16
I63
sg34
S'pfClusterRefsForJetsHCAL'
p1988
sg35
S'PFClusterRefCandidateProducer'
p1989
sbag0
(g57
g2
Ntp1990
Rp1991
(dp1992
g11
(lp1993
g92
ag1979
asg14
I00
sg1979
g0
(g77
g2
Ntp1994
Rp1995
(dp1996
g14
I00
sg32
I01
sg81
g1983
sg15
I00
sbsg15
I00
sg92
g0
(g93
g2
Ntp1997
Rp1998
(dp1999
g14
I00
sg32
I01
sg15
I00
sg97
g907
sg99
g100
sg101
g100
sbsg17
g1987
sg16
I67
sg34
S'pfClusterRefsForJetsECAL'
p2000
sg35
g1989
sbag0
(g57
g2
Ntp2001
Rp2002
(dp2003
g11
(lp2004
g92
ag1979
asg14
I00
sg1979
g0
(g77
g2
Ntp2005
Rp2006
(dp2007
g14
I00
sg32
I01
sg81
g1983
sg15
I00
sbsg15
I00
sg92
g0
(g93
g2
Ntp2008
Rp2009
(dp2010
g14
I00
sg32
I01
sg15
I00
sg97
g1602
sg99
g100
sg101
g100
sbsg17
g1987
sg16
I71
sg34
S'pfClusterRefsForJetsHF'
p2011
sg35
g1989
sbag0
(g57
g2
Ntp2012
Rp2013
(dp2014
g11
(lp2015
g92
ag1979
asg14
I00
sg1979
g0
(g77
g2
Ntp2016
Rp2017
(dp2018
g14
I00
sg32
I01
sg81
g1983
sg15
I00
sbsg15
I00
sg92
g0
(g93
g2
Ntp2019
Rp2020
(dp2021
g14
I00
sg32
I01
sg15
I00
sg97
g1925
sg99
g100
sg101
g100
sbsg17
g1987
sg16
I75
sg34
S'pfClusterRefsForJetsHO'
p2022
sg35
g1989
sbag0
(g57
g2
Ntp2023
Rp2024
(dp2025
g11
(lp2026
g92
asg14
I00
sg15
I00
sg92
g0
(cFWCore.ParameterSet.Types
VInputTag
p2027
g20
(lp2028
g1988
ag2000
ag2011
ag2022
atp2029
Rp2030
(dp2031
g14
I00
sg32
I01
sg15
I00
sbsg17
g1987
sg16
I78
sg34
S'pfClusterRefsForJets'
p2032
sg35
S'PFClusterRefCandidateMerger'
p2033
sbasbsg15
I00
sg34
g1967
sbsS'particleFlowClusterWithoutHO'
p2034
g0
(g39
g2
Ntp2035
Rp2036
(dp2037
g14
I00
sg43
g0
(g44
g2
Ntp2038
Rp2039
(dp2040
g48
(lp2041
g51
ag331
ag917
asbsg15
I00
sg34
g2034
sbssg2011
g2002
sg2022
g2013
sS'_Process__source'
p2042
g0
(cFWCore.ParameterSet.Modules
Source
p2043
g2
Ntp2044
Rp2045
(dp2046
g11
(lp2047
S'fileNames'
p2048
asg14
I00
sg15
I00
sg16
I175
sg17
S'/afs/cern.ch/user/c/cheidegg/p/CMSSW_7_4_4_patch2/python/FWCore/ParameterSet/Modules.py'
p2049
sg2048
g0
(g19
g20
(lp2050
S'root://eoscms.cern.ch//store/data/Run2015A/SingleMu/RECO/PromptReco-v1/000/247/070/00000/A2AFED85-AB0C-E511-ACA9-02163E0142B7.root'
p2051
atp2052
Rp2053
(dp2054
g14
I00
sg32
I00
sg15
I00
sg33
I1
sbsg35
S'PoolSource'
p2055
sbsg1602
g1387
sS'source'
p2056
g2045
sg38
g41
sS'CaloTowerGeometryFromDBEP'
p2057
g0
(g7
g2
Ntp2058
Rp2059
(dp2060
g11
(lp2061
S'applyAlignment'
p2062
aS'hcalTopologyConstants'
p2063
asg14
I00
sg15
I01
sg16
I40
sg17
g18
sg2063
g0
(g67
g2
Ntp2064
Rp2065
(dp2066
g14
I00
sg32
I01
sg15
I00
sS'maxDepthHE'
p2067
g0
(g166
g2
Ntp2068
Rp2069
(dp2070
g14
I00
sg32
I01
sg81
I3
sg15
I00
sbsS'maxDepthHB'
p2071
g0
(g166
g2
Ntp2072
Rp2073
(dp2074
g14
I00
sg32
I01
sg81
I2
sg15
I00
sbsg11
(lp2075
g2067
ag2071
aS'mode'
p2076
asg2076
g0
(g77
g2
Ntp2077
Rp2078
(dp2079
g14
I00
sg32
I01
sg81
S'HcalTopologyMode::LHC'
p2080
sg15
I00
sbsbsg34
g2057
sg2062
g0
(g219
g2
Ntp2081
Rp2082
(dp2083
g14
I00
sg32
I01
sg81
I00
sg15
I00
sbsg35
g2057
sbsS'HcalReLabel'
p2084
g0
(g67
g2
Ntp2085
Rp2086
(dp2087
g14
I00
sg32
I01
sg15
I00
sS'RelabelRules'
p2088
g0
(g67
g2
Ntp2089
Rp2090
(dp2091
g14
I00
sg32
I00
sg15
I00
sS'Eta16'
p2092
g0
(g947
g20
(lp2093
I1
aI1
aI2
aI2
aI2
aI2
aI2
aI2
aI2
aI3
aI3
aI3
aI3
aI3
aI3
aI3
aI3
aI3
aI3
atp2094
Rp2095
(dp2096
g14
I00
sg32
I00
sg15
I00
sbsS'Eta17'
p2097
g0
(g947
g20
(lp2098
I1
aI1
aI2
aI2
aI3
aI3
aI3
aI4
aI4
aI4
aI4
aI4
aI5
aI5
aI5
aI5
aI5
aI5
aI5
atp2099
Rp2100
(dp2101
g14
I00
sg32
I00
sg15
I00
sbsS'CorrectPhi'
p2102
g0
(g219
g2
Ntp2103
Rp2104
(dp2105
g14
I00
sg32
I00
sg81
I00
sg15
I00
sbsg11
(lp2106
g2092
ag2097
aS'Eta1'
p2107
ag2102
asg2107
g0
(g947
g20
(lp2108
I1
aI2
aI2
aI2
aI3
aI3
aI3
aI3
aI3
aI3
aI3
aI3
aI3
aI3
aI3
aI3
aI3
aI3
aI3
atp2109
Rp2110
(dp2111
g14
I00
sg32
I00
sg15
I00
sbsbsg11
(lp2112
g2088
aS'RelabelHits'
p2113
asg34
g2084
sg2113
g0
(g219
g2
Ntp2114
Rp2115
(dp2116
g14
I00
sg32
I00
sg81
I00
sg15
I00
sbsbsg915
g331
sS'trackerTopologyConstants'
p2117
g0
(g7
g2
Ntp2118
Rp2119
(dp2120
g14
I00
sg16
I40
sS'tib_str_int_extStartBit'
p2121
g0
(g144
g2
Ntp2122
Rp2123
(dp2124
g14
I00
sg32
I01
sg81
I10
sg15
I00
sbsS'tib_layerMask'
p2125
g0
(g144
g2
Ntp2126
Rp2127
(dp2128
g14
I00
sg32
I01
sg81
I7
sg15
I00
sbsS'tib_str_fw_bwStartBit'
p2129
g0
(g144
g2
Ntp2130
Rp2131
(dp2132
g14
I00
sg32
I01
sg81
I12
sg15
I00
sbsS'pxf_bladeMask'
p2133
g0
(g144
g2
Ntp2134
Rp2135
(dp2136
g14
I00
sg32
I01
sg81
I63
sg15
I00
sbsS'pxb_moduleStartBit'
p2137
g0
(g144
g2
Ntp2138
Rp2139
(dp2140
g14
I00
sg32
I01
sg81
I2
sg15
I00
sbsS'pxb_ladderStartBit'
p2141
g0
(g144
g2
Ntp2142
Rp2143
(dp2144
g14
I00
sg32
I01
sg81
I8
sg15
I00
sbsS'pxb_layerStartBit'
p2145
g0
(g144
g2
Ntp2146
Rp2147
(dp2148
g14
I00
sg32
I01
sg81
I16
sg15
I00
sbsS'pxb_layerMask'
p2149
g0
(g144
g2
Ntp2150
Rp2151
(dp2152
g14
I00
sg32
I01
sg81
I15
sg15
I00
sbsS'tec_wheelStartBit'
p2153
g0
(g144
g2
Ntp2154
Rp2155
(dp2156
g14
I00
sg32
I01
sg81
I14
sg15
I00
sbsS'tib_str_fw_bwMask'
p2157
g0
(g144
g2
Ntp2158
Rp2159
(dp2160
g14
I00
sg32
I01
sg81
I3
sg15
I00
sbsS'tec_ringStartBit'
p2161
g0
(g144
g2
Ntp2162
Rp2163
(dp2164
g14
I00
sg32
I01
sg81
I5
sg15
I00
sbsg35
S'TrackerTopologyEP'
p2165
sS'tib_moduleStartBit'
p2166
g0
(g144
g2
Ntp2167
Rp2168
(dp2169
g14
I00
sg32
I01
sg81
I2
sg15
I00
sbsg11
(lp2170
S'tob_rodStartBit'
p2171
ag2121
ag2125
ag2133
aS'appendToDataLabel'
p2172
ag2141
ag2145
ag2153
aS'tib_str_int_extMask'
p2173
ag2161
ag2166
aS'tib_sterMask'
p2174
aS'tid_sideStartBit'
p2175
aS'tid_module_fw_bwStartBit'
p2176
aS'tid_ringMask'
p2177
aS'tob_sterMask'
p2178
aS'tec_petal_fw_bwStartBit'
p2179
aS'tec_ringMask'
p2180
aS'tib_strMask'
p2181
aS'tec_sterMask'
p2182
aS'tec_wheelMask'
p2183
aS'tec_sideStartBit'
p2184
aS'pxb_moduleMask'
p2185
aS'pxf_panelStartBit'
p2186
aS'tid_sideMask'
p2187
aS'tob_moduleMask'
p2188
aS'tid_ringStartBit'
p2189
aS'pxf_sideMask'
p2190
ag2137
aS'pxf_diskStartBit'
p2191
ag2157
aS'tec_moduleMask'
p2192
aS'tid_sterMask'
p2193
aS'tob_rod_fw_bwMask'
p2194
aS'tob_layerStartBit'
p2195
aS'tec_petal_fw_bwMask'
p2196
aS'tib_strStartBit'
p2197
aS'tec_sterStartBit'
p2198
aS'tid_moduleMask'
p2199
aS'tib_sterStartBit'
p2200
aS'tid_sterStartBit'
p2201
aS'pxf_moduleStartBit'
p2202
aS'pxf_diskMask'
p2203
aS'tob_moduleStartBit'
p2204
aS'tid_wheelStartBit'
p2205
aS'tob_layerMask'
p2206
aS'tid_module_fw_bwMask'
p2207
aS'tob_rod_fw_bwStartBit'
p2208
aS'tec_petalMask'
p2209
aS'pxb_ladderMask'
p2210
aS'tec_moduleStartBit'
p2211
aS'tob_rodMask'
p2212
aS'tec_sideMask'
p2213
aS'pxf_sideStartBit'
p2214
ag2149
aS'tib_layerStartBit'
p2215
aS'pxf_panelMask'
p2216
aS'tib_moduleMask'
p2217
aS'pxf_bladeStartBit'
p2218
aS'tid_wheelMask'
p2219
aS'tob_sterStartBit'
p2220
aS'tid_moduleStartBit'
p2221
aS'tec_petalStartBit'
p2222
ag2129
aS'pxf_moduleMask'
p2223
asg2175
g0
(g144
g2
Ntp2224
Rp2225
(dp2226
g14
I00
sg32
I01
sg81
I13
sg15
I00
sbsg2205
g0
(g144
g2
Ntp2227
Rp2228
(dp2229
g14
I00
sg32
I01
sg81
I11
sg15
I00
sbsg2177
g0
(g144
g2
Ntp2230
Rp2231
(dp2232
g14
I00
sg32
I01
sg81
I3
sg15
I00
sbsg2190
g0
(g144
g2
Ntp2233
Rp2234
(dp2235
g14
I00
sg32
I01
sg81
I3
sg15
I00
sbsg2179
g0
(g144
g2
Ntp2236
Rp2237
(dp2238
g14
I00
sg32
I01
sg81
I12
sg15
I00
sbsg2180
g0
(g144
g2
Ntp2239
Rp2240
(dp2241
g14
I00
sg32
I01
sg81
I7
sg15
I00
sbsg2181
g0
(g144
g2
Ntp2242
Rp2243
(dp2244
g14
I00
sg32
I01
sg81
I63
sg15
I00
sbsg2182
g0
(g144
g2
Ntp2245
Rp2246
(dp2247
g14
I00
sg32
I01
sg81
I3
sg15
I00
sbsg2184
g0
(g144
g2
Ntp2248
Rp2249
(dp2250
g14
I00
sg32
I01
sg81
I18
sg15
I00
sbsg2185
g0
(g144
g2
Ntp2251
Rp2252
(dp2253
g14
I00
sg32
I01
sg81
I63
sg15
I00
sbsg2193
g0
(g144
g2
Ntp2254
Rp2255
(dp2256
g14
I00
sg32
I01
sg81
I3
sg15
I00
sbsg2186
g0
(g144
g2
Ntp2257
Rp2258
(dp2259
g14
I00
sg32
I01
sg81
I8
sg15
I00
sbsg2187
g0
(g144
g2
Ntp2260
Rp2261
(dp2262
g14
I00
sg32
I01
sg81
I3
sg15
I00
sbsg2188
g0
(g144
g2
Ntp2263
Rp2264
(dp2265
g14
I00
sg32
I01
sg81
I7
sg15
I00
sbsg2189
g0
(g144
g2
Ntp2266
Rp2267
(dp2268
g14
I00
sg32
I01
sg81
I9
sg15
I00
sbsg2174
g0
(g144
g2
Ntp2269
Rp2270
(dp2271
g14
I00
sg32
I01
sg81
I3
sg15
I00
sbsg2172
g0
(g77
g2
Ntp2272
Rp2273
(dp2274
g14
I00
sg32
I01
sg81
g100
sg15
I00
sbsg2191
g0
(g144
g2
Ntp2275
Rp2276
(dp2277
g14
I00
sg32
I01
sg81
I16
sg15
I00
sbsg2173
g0
(g144
g2
Ntp2278
Rp2279
(dp2280
g14
I00
sg32
I01
sg81
I3
sg15
I00
sbsg2192
g0
(g144
g2
Ntp2281
Rp2282
(dp2283
g14
I00
sg32
I01
sg81
I7
sg15
I00
sbsg2178
g0
(g144
g2
Ntp2284
Rp2285
(dp2286
g14
I00
sg32
I01
sg81
I3
sg15
I00
sbsg2194
g0
(g144
g2
Ntp2287
Rp2288
(dp2289
g14
I00
sg32
I01
sg81
I3
sg15
I00
sbsg2195
g0
(g144
g2
Ntp2290
Rp2291
(dp2292
g14
I00
sg32
I01
sg81
I14
sg15
I00
sbsg2196
g0
(g144
g2
Ntp2293
Rp2294
(dp2295
g14
I00
sg32
I01
sg81
I3
sg15
I00
sbsg2215
g0
(g144
g2
Ntp2296
Rp2297
(dp2298
g14
I00
sg32
I01
sg81
I14
sg15
I00
sbsg2198
g0
(g144
g2
Ntp2299
Rp2300
(dp2301
g14
I00
sg32
I01
sg81
I0
sg15
I00
sbsg2199
g0
(g144
g2
Ntp2302
Rp2303
(dp2304
g14
I00
sg32
I01
sg81
I31
sg15
I00
sbsg2200
g0
(g144
g2
Ntp2305
Rp2306
(dp2307
g14
I00
sg32
I01
sg81
I0
sg15
I00
sbsg17
g18
sg2201
g0
(g144
g2
Ntp2308
Rp2309
(dp2310
g14
I00
sg32
I01
sg81
I0
sg15
I00
sbsg2202
g0
(g144
g2
Ntp2311
Rp2312
(dp2313
g14
I00
sg32
I01
sg81
I2
sg15
I00
sbsg2203
g0
(g144
g2
Ntp2314
Rp2315
(dp2316
g14
I00
sg32
I01
sg81
I15
sg15
I00
sbsg2214
g0
(g144
g2
Ntp2317
Rp2318
(dp2319
g14
I00
sg32
I01
sg81
I23
sg15
I00
sbsg2176
g0
(g144
g2
Ntp2320
Rp2321
(dp2322
g14
I00
sg32
I01
sg81
I7
sg15
I00
sbsg2206
g0
(g144
g2
Ntp2323
Rp2324
(dp2325
g14
I00
sg32
I01
sg81
I7
sg15
I00
sbsg2207
g0
(g144
g2
Ntp2326
Rp2327
(dp2328
g14
I00
sg32
I01
sg81
I3
sg15
I00
sbsg2208
g0
(g144
g2
Ntp2329
Rp2330
(dp2331
g14
I00
sg32
I01
sg81
I12
sg15
I00
sbsg2209
g0
(g144
g2
Ntp2332
Rp2333
(dp2334
g14
I00
sg32
I01
sg81
I15
sg15
I00
sbsg2210
g0
(g144
g2
Ntp2335
Rp2336
(dp2337
g14
I00
sg32
I01
sg81
I255
sg15
I00
sbsg2211
g0
(g144
g2
Ntp2338
Rp2339
(dp2340
g14
I00
sg32
I01
sg81
I2
sg15
I00
sbsg15
I00
sg2212
g0
(g144
g2
Ntp2341
Rp2342
(dp2343
g14
I00
sg32
I01
sg81
I127
sg15
I00
sbsg2197
g0
(g144
g2
Ntp2344
Rp2345
(dp2346
g14
I00
sg32
I01
sg81
I4
sg15
I00
sbsg2183
g0
(g144
g2
Ntp2347
Rp2348
(dp2349
g14
I00
sg32
I01
sg81
I15
sg15
I00
sbsg2171
g0
(g144
g2
Ntp2350
Rp2351
(dp2352
g14
I00
sg32
I01
sg81
I5
sg15
I00
sbsg2216
g0
(g144
g2
Ntp2353
Rp2354
(dp2355
g14
I00
sg32
I01
sg81
I3
sg15
I00
sbsg2217
g0
(g144
g2
Ntp2356
Rp2357
(dp2358
g14
I00
sg32
I01
sg81
I3
sg15
I00
sbsg2218
g0
(g144
g2
Ntp2359
Rp2360
(dp2361
g14
I00
sg32
I01
sg81
I10
sg15
I00
sbsg2219
g0
(g144
g2
Ntp2362
Rp2363
(dp2364
g14
I00
sg32
I01
sg81
I3
sg15
I00
sbsg2220
g0
(g144
g2
Ntp2365
Rp2366
(dp2367
g14
I00
sg32
I01
sg81
I0
sg15
I00
sbsg2221
g0
(g144
g2
Ntp2368
Rp2369
(dp2370
g14
I00
sg32
I01
sg81
I2
sg15
I00
sbsg2222
g0
(g144
g2
Ntp2371
Rp2372
(dp2373
g14
I00
sg32
I01
sg81
I8
sg15
I00
sbsg2204
g0
(g144
g2
Ntp2374
Rp2375
(dp2376
g14
I00
sg32
I01
sg81
I2
sg15
I00
sbsg34
g2117
sg2223
g0
(g144
g2
Ntp2377
Rp2378
(dp2379
g14
I00
sg32
I01
sg81
I63
sg15
I00
sbsg2213
g0
(g144
g2
Ntp2380
Rp2381
(dp2382
g14
I00
sg32
I01
sg81
I3
sg15
I00
sbsbsS'_Process__InExtendCall'
p2383
I00
sS'_Process__producers'
p2384
(dp2385
g111
g59
sS'pfClusterMet'
p2386
g0
(g57
g2
Ntp2387
Rp2388
(dp2389
g11
(lp2390
S'globalThreshold'
p2391
ag92
aS'alias'
p2392
asg14
I00
sg15
I00
sg92
g0
(g93
g2
Ntp2393
Rp2394
(dp2395
g14
I00
sg32
I01
sg15
I00
sg97
g2032
sg99
g100
sg101
g100
sbsg17
S'/cvmfs/cms.cern.ch/slc6_amd64_gcc491/cms/cmssw-patch/CMSSW_7_4_4_patch2/python/RecoMET/METProducers/PFClusterMET_cfi.py'
p2396
sg2392
g0
(g77
g2
Ntp2397
Rp2398
(dp2399
g14
I00
sg32
I01
sg81
g2386
sg15
I00
sbsg16
I11
sg34
g2386
sg2391
g0
(g85
g2
Ntp2400
Rp2401
(dp2402
g14
I00
sg32
I01
sg81
F0.0
sg15
I00
sbsg35
S'PFClusterMETProducer'
p2403
sbsg1602
g1387
sg907
g869
sg283
g122
sg2011
g2002
sg2032
g2024
sg2000
g1991
sg442
g338
sg2022
g2013
sg1135
g1024
sg1345
g1152
sg1925
g1777
sg1988
g1976
sg1768
g1709
sS'condMETSelector'
p2404
g0
(g57
g2
Ntp2405
Rp2406
(dp2407
g11
(lp2408
S'cut'
p2409
aS'decay'
p2410
asg14
I00
sg2409
g0
(g77
g2
Ntp2411
Rp2412
(dp2413
g14
I00
sg32
I01
sg81
S'(daughter(0).pt > 50) || (daughter(1).pt > 50)'
p2414
sg15
I00
sbsg15
I00
sg2410
g0
(g77
g2
Ntp2415
Rp2416
(dp2417
g14
I00
sg32
I01
sg81
S'caloMet pfClusterMet'
p2418
sg15
I00
sbsg17
g1987
sg16
I118
sg34
g2404
sg35
S'CandViewShallowCloneCombiner'
p2419
sbsS'HBHENoiseFilterResultProducer'
p2420
g0
(g57
g2
Ntp2421
Rp2422
(dp2423
g11
(lp2424
S'IgnoreTS4TS5ifJetInLowBVRegion'
p2425
aS'defaultDecision'
p2426
aS'minHPDNoOtherHits'
p2427
aS'noiselabel'
p2428
aS'minZeros'
p2429
aS'minHPDHits'
p2430
asg14
I00
sg2425
g0
(g219
g2
Ntp2431
Rp2432
(dp2433
g14
I00
sg32
I01
sg81
I01
sg15
I00
sbsg15
I00
sg2426
g0
(g77
g2
Ntp2434
Rp2435
(dp2436
g14
I00
sg32
I01
sg81
S'HBHENoiseFilterResultRun1'
p2437
sg15
I00
sbsg16
I10
sg17
S'/cvmfs/cms.cern.ch/slc6_amd64_gcc491/cms/cmssw-patch/CMSSW_7_4_4_patch2/python/CommonTools/RecoAlgos/HBHENoiseFilterResultProducer_cfi.py'
p2438
sg2427
g0
(g166
g2
Ntp2439
Rp2440
(dp2441
g14
I00
sg32
I01
sg81
I10
sg15
I00
sbsg2428
g0
(g93
g2
Ntp2442
Rp2443
(dp2444
g14
I00
sg32
I01
sg15
I00
sg97
S'hcalnoise'
p2445
sg99
g100
sg101
g100
sbsg2429
g0
(g166
g2
Ntp2446
Rp2447
(dp2448
g14
I00
sg32
I01
sg81
I10
sg15
I00
sbsg34
g2420
sg2430
g0
(g166
g2
Ntp2449
Rp2450
(dp2451
g14
I00
sg32
I01
sg81
I17
sg15
I00
sbsg35
g2420
sbsg1698
g1644
sS'particleFlowClusterHBHETimeSelected'
p2452
g0
(g57
g2
Ntp2453
Rp2454
(dp2455
g11
(lp2456
g92
ag1062
asg14
I00
sg15
I00
sg92
g0
(g93
g2
Ntp2457
Rp2458
(dp2459
g14
I00
sg32
I01
sg15
I00
sg97
g1345
sg99
g100
sg101
g100
sbsg17
S'/cvmfs/cms.cern.ch/slc6_amd64_gcc491/cms/cmssw-patch/CMSSW_7_4_4_patch2/python/RecoParticleFlow/PFClusterProducer/particleFlowClusterHBHETimeSelected_cfi.py'
p2460
sg16
I198
sg1062
g0
(g65
g20
(lp2461
g0
(g67
g2
Ntp2462
Rp2463
(dp2464
g14
I00
sg32
I01
sg15
I00
sS'minTime'
p2465
g0
(g85
g2
Ntp2466
Rp2467
(dp2468
g14
I00
sg32
I01
sg81
F-30.0
sg15
I00
sbsS'minEnergy'
p2469
g0
(g85
g2
Ntp2470
Rp2471
(dp2472
g14
I00
sg32
I01
sg81
F0.0
sg15
I00
sbsS'maxEnergy'
p2473
g0
(g85
g2
Ntp2474
Rp2475
(dp2476
g14
I00
sg32
I01
sg81
F1.0
sg15
I00
sbsg1067
g0
(g85
g2
Ntp2477
Rp2478
(dp2479
g14
I00
sg32
I01
sg81
F1.0
sg15
I00
sbsg11
(lp2480
g2465
ag2469
ag2473
ag1067
aS'maxTime'
p2481
ag448
asg2481
g0
(g85
g2
Ntp2482
Rp2483
(dp2484
g14
I00
sg32
I01
sg81
F30.0
sg15
I00
sbsg448
g0
(g219
g2
Ntp2485
Rp2486
(dp2487
g14
I00
sg32
I01
sg81
I00
sg15
I00
sbsbag0
(g67
g2
Ntp2488
Rp2489
(dp2490
g14
I00
sg32
I01
sg15
I00
sg2465
g0
(g85
g2
Ntp2491
Rp2492
(dp2493
g14
I00
sg32
I01
sg81
F-30.0
sg15
I00
sbsg2469
g0
(g85
g2
Ntp2494
Rp2495
(dp2496
g14
I00
sg32
I01
sg81
F0.0
sg15
I00
sbsg2473
g0
(g85
g2
Ntp2497
Rp2498
(dp2499
g14
I00
sg32
I01
sg81
F1.0
sg15
I00
sbsg1067
g0
(g85
g2
Ntp2500
Rp2501
(dp2502
g14
I00
sg32
I01
sg81
F1.0
sg15
I00
sbsg11
(lp2503
g2465
ag2469
ag2473
ag1067
ag2481
ag448
asg2481
g0
(g85
g2
Ntp2504
Rp2505
(dp2506
g14
I00
sg32
I01
sg81
F30.0
sg15
I00
sbsg448
g0
(g219
g2
Ntp2507
Rp2508
(dp2509
g14
I00
sg32
I01
sg81
I01
sg15
I00
sbsbag0
(g67
g2
Ntp2510
Rp2511
(dp2512
g14
I00
sg32
I01
sg15
I00
sg2465
g0
(g85
g2
Ntp2513
Rp2514
(dp2515
g14
I00
sg32
I01
sg81
F-30.0
sg15
I00
sbsg2469
g0
(g85
g2
Ntp2516
Rp2517
(dp2518
g14
I00
sg32
I01
sg81
F0.0
sg15
I00
sbsg2473
g0
(g85
g2
Ntp2519
Rp2520
(dp2521
g14
I00
sg32
I01
sg81
F1.0
sg15
I00
sbsg1067
g0
(g85
g2
Ntp2522
Rp2523
(dp2524
g14
I00
sg32
I01
sg81
F2.0
sg15
I00
sbsg11
(lp2525
g2465
ag2469
ag2473
ag1067
ag2481
ag448
asg2481
g0
(g85
g2
Ntp2526
Rp2527
(dp2528
g14
I00
sg32
I01
sg81
F30.0
sg15
I00
sbsg448
g0
(g219
g2
Ntp2529
Rp2530
(dp2531
g14
I00
sg32
I01
sg81
I00
sg15
I00
sbsbag0
(g67
g2
Ntp2532
Rp2533
(dp2534
g14
I00
sg32
I01
sg15
I00
sg2465
g0
(g85
g2
Ntp2535
Rp2536
(dp2537
g14
I00
sg32
I01
sg81
F-30.0
sg15
I00
sbsg2469
g0
(g85
g2
Ntp2538
Rp2539
(dp2540
g14
I00
sg32
I01
sg81
F0.0
sg15
I00
sbsg2473
g0
(g85
g2
Ntp2541
Rp2542
(dp2543
g14
I00
sg32
I01
sg81
F1.0
sg15
I00
sbsg1067
g0
(g85
g2
Ntp2544
Rp2545
(dp2546
g14
I00
sg32
I01
sg81
F2.0
sg15
I00
sbsg11
(lp2547
g2465
ag2469
ag2473
ag1067
ag2481
ag448
asg2481
g0
(g85
g2
Ntp2548
Rp2549
(dp2550
g14
I00
sg32
I01
sg81
F30.0
sg15
I00
sbsg448
g0
(g219
g2
Ntp2551
Rp2552
(dp2553
g14
I00
sg32
I01
sg81
I01
sg15
I00
sbsbag0
(g67
g2
Ntp2554
Rp2555
(dp2556
g14
I00
sg32
I01
sg15
I00
sg2465
g0
(g85
g2
Ntp2557
Rp2558
(dp2559
g14
I00
sg32
I01
sg81
F-30.0
sg15
I00
sbsg2469
g0
(g85
g2
Ntp2560
Rp2561
(dp2562
g14
I00
sg32
I01
sg81
F0.0
sg15
I00
sbsg2473
g0
(g85
g2
Ntp2563
Rp2564
(dp2565
g14
I00
sg32
I01
sg81
F1.0
sg15
I00
sbsg1067
g0
(g85
g2
Ntp2566
Rp2567
(dp2568
g14
I00
sg32
I01
sg81
F3.0
sg15
I00
sbsg11
(lp2569
g2465
ag2469
ag2473
ag1067
ag2481
ag448
asg2481
g0
(g85
g2
Ntp2570
Rp2571
(dp2572
g14
I00
sg32
I01
sg81
F30.0
sg15
I00
sbsg448
g0
(g219
g2
Ntp2573
Rp2574
(dp2575
g14
I00
sg32
I01
sg81
I00
sg15
I00
sbsbag0
(g67
g2
Ntp2576
Rp2577
(dp2578
g14
I00
sg32
I01
sg15
I00
sg2465
g0
(g85
g2
Ntp2579
Rp2580
(dp2581
g14
I00
sg32
I01
sg81
F-30.0
sg15
I00
sbsg2469
g0
(g85
g2
Ntp2582
Rp2583
(dp2584
g14
I00
sg32
I01
sg81
F0.0
sg15
I00
sbsg2473
g0
(g85
g2
Ntp2585
Rp2586
(dp2587
g14
I00
sg32
I01
sg81
F1.0
sg15
I00
sbsg1067
g0
(g85
g2
Ntp2588
Rp2589
(dp2590
g14
I00
sg32
I01
sg81
F3.0
sg15
I00
sbsg11
(lp2591
g2465
ag2469
ag2473
ag1067
ag2481
ag448
asg2481
g0
(g85
g2
Ntp2592
Rp2593
(dp2594
g14
I00
sg32
I01
sg81
F30.0
sg15
I00
sbsg448
g0
(g219
g2
Ntp2595
Rp2596
(dp2597
g14
I00
sg32
I01
sg81
I01
sg15
I00
sbsbag0
(g67
g2
Ntp2598
Rp2599
(dp2600
g14
I00
sg32
I01
sg15
I00
sg2465
g0
(g85
g2
Ntp2601
Rp2602
(dp2603
g14
I00
sg32
I01
sg81
F-20.0
sg15
I00
sbsg2469
g0
(g85
g2
Ntp2604
Rp2605
(dp2606
g14
I00
sg32
I01
sg81
F1.0
sg15
I00
sbsg2473
g0
(g85
g2
Ntp2607
Rp2608
(dp2609
g14
I00
sg32
I01
sg81
F2.0
sg15
I00
sbsg1067
g0
(g85
g2
Ntp2610
Rp2611
(dp2612
g14
I00
sg32
I01
sg81
F1.0
sg15
I00
sbsg11
(lp2613
g2465
ag2469
ag2473
ag1067
ag2481
ag448
asg2481
g0
(g85
g2
Ntp2614
Rp2615
(dp2616
g14
I00
sg32
I01
sg81
F15.0
sg15
I00
sbsg448
g0
(g219
g2
Ntp2617
Rp2618
(dp2619
g14
I00
sg32
I01
sg81
I00
sg15
I00
sbsbag0
(g67
g2
Ntp2620
Rp2621
(dp2622
g14
I00
sg32
I01
sg15
I00
sg2465
g0
(g85
g2
Ntp2623
Rp2624
(dp2625
g14
I00
sg32
I01
sg81
F-20.0
sg15
I00
sbsg2469
g0
(g85
g2
Ntp2626
Rp2627
(dp2628
g14
I00
sg32
I01
sg81
F1.0
sg15
I00
sbsg2473
g0
(g85
g2
Ntp2629
Rp2630
(dp2631
g14
I00
sg32
I01
sg81
F2.0
sg15
I00
sbsg1067
g0
(g85
g2
Ntp2632
Rp2633
(dp2634
g14
I00
sg32
I01
sg81
F1.0
sg15
I00
sbsg11
(lp2635
g2465
ag2469
ag2473
ag1067
ag2481
ag448
asg2481
g0
(g85
g2
Ntp2636
Rp2637
(dp2638
g14
I00
sg32
I01
sg81
F16.0
sg15
I00
sbsg448
g0
(g219
g2
Ntp2639
Rp2640
(dp2641
g14
I00
sg32
I01
sg81
I01
sg15
I00
sbsbag0
(g67
g2
Ntp2642
Rp2643
(dp2644
g14
I00
sg32
I01
sg15
I00
sg2465
g0
(g85
g2
Ntp2645
Rp2646
(dp2647
g14
I00
sg32
I01
sg81
F-20.0
sg15
I00
sbsg2469
g0
(g85
g2
Ntp2648
Rp2649
(dp2650
g14
I00
sg32
I01
sg81
F1.0
sg15
I00
sbsg2473
g0
(g85
g2
Ntp2651
Rp2652
(dp2653
g14
I00
sg32
I01
sg81
F2.0
sg15
I00
sbsg1067
g0
(g85
g2
Ntp2654
Rp2655
(dp2656
g14
I00
sg32
I01
sg81
F2.0
sg15
I00
sbsg11
(lp2657
g2465
ag2469
ag2473
ag1067
ag2481
ag448
asg2481
g0
(g85
g2
Ntp2658
Rp2659
(dp2660
g14
I00
sg32
I01
sg81
F15.0
sg15
I00
sbsg448
g0
(g219
g2
Ntp2661
Rp2662
(dp2663
g14
I00
sg32
I01
sg81
I00
sg15
I00
sbsbag0
(g67
g2
Ntp2664
Rp2665
(dp2666
g14
I00
sg32
I01
sg15
I00
sg2465
g0
(g85
g2
Ntp2667
Rp2668
(dp2669
g14
I00
sg32
I01
sg81
F-20.0
sg15
I00
sbsg2469
g0
(g85
g2
Ntp2670
Rp2671
(dp2672
g14
I00
sg32
I01
sg81
F1.0
sg15
I00
sbsg2473
g0
(g85
g2
Ntp2673
Rp2674
(dp2675
g14
I00
sg32
I01
sg81
F2.0
sg15
I00
sbsg1067
g0
(g85
g2
Ntp2676
Rp2677
(dp2678
g14
I00
sg32
I01
sg81
F2.0
sg15
I00
sbsg11
(lp2679
g2465
ag2469
ag2473
ag1067
ag2481
ag448
asg2481
g0
(g85
g2
Ntp2680
Rp2681
(dp2682
g14
I00
sg32
I01
sg81
F15.0
sg15
I00
sbsg448
g0
(g219
g2
Ntp2683
Rp2684
(dp2685
g14
I00
sg32
I01
sg81
I01
sg15
I00
sbsbag0
(g67
g2
Ntp2686
Rp2687
(dp2688
g14
I00
sg32
I01
sg15
I00
sg2465
g0
(g85
g2
Ntp2689
Rp2690
(dp2691
g14
I00
sg32
I01
sg81
F-20.0
sg15
I00
sbsg2469
g0
(g85
g2
Ntp2692
Rp2693
(dp2694
g14
I00
sg32
I01
sg81
F1.0
sg15
I00
sbsg2473
g0
(g85
g2
Ntp2695
Rp2696
(dp2697
g14
I00
sg32
I01
sg81
F2.0
sg15
I00
sbsg1067
g0
(g85
g2
Ntp2698
Rp2699
(dp2700
g14
I00
sg32
I01
sg81
F3.0
sg15
I00
sbsg11
(lp2701
g2465
ag2469
ag2473
ag1067
ag2481
ag448
asg2481
g0
(g85
g2
Ntp2702
Rp2703
(dp2704
g14
I00
sg32
I01
sg81
F15.0
sg15
I00
sbsg448
g0
(g219
g2
Ntp2705
Rp2706
(dp2707
g14
I00
sg32
I01
sg81
I00
sg15
I00
sbsbag0
(g67
g2
Ntp2708
Rp2709
(dp2710
g14
I00
sg32
I01
sg15
I00
sg2465
g0
(g85
g2
Ntp2711
Rp2712
(dp2713
g14
I00
sg32
I01
sg81
F-20.0
sg15
I00
sbsg2469
g0
(g85
g2
Ntp2714
Rp2715
(dp2716
g14
I00
sg32
I01
sg81
F1.0
sg15
I00
sbsg2473
g0
(g85
g2
Ntp2717
Rp2718
(dp2719
g14
I00
sg32
I01
sg81
F2.0
sg15
I00
sbsg1067
g0
(g85
g2
Ntp2720
Rp2721
(dp2722
g14
I00
sg32
I01
sg81
F3.0
sg15
I00
sbsg11
(lp2723
g2465
ag2469
ag2473
ag1067
ag2481
ag448
asg2481
g0
(g85
g2
Ntp2724
Rp2725
(dp2726
g14
I00
sg32
I01
sg81
F15.0
sg15
I00
sbsg448
g0
(g219
g2
Ntp2727
Rp2728
(dp2729
g14
I00
sg32
I01
sg81
I01
sg15
I00
sbsbag0
(g67
g2
Ntp2730
Rp2731
(dp2732
g14
I00
sg32
I01
sg15
I00
sg2465
g0
(g85
g2
Ntp2733
Rp2734
(dp2735
g14
I00
sg32
I01
sg81
F-20.0
sg15
I00
sbsg2469
g0
(g85
g2
Ntp2736
Rp2737
(dp2738
g14
I00
sg32
I01
sg81
F2.0
sg15
I00
sbsg2473
g0
(g85
g2
Ntp2739
Rp2740
(dp2741
g14
I00
sg32
I01
sg81
F5.0
sg15
I00
sbsg1067
g0
(g85
g2
Ntp2742
Rp2743
(dp2744
g14
I00
sg32
I01
sg81
F1.0
sg15
I00
sbsg11
(lp2745
g2465
ag2469
ag2473
ag1067
ag2481
ag448
asg2481
g0
(g85
g2
Ntp2746
Rp2747
(dp2748
g14
I00
sg32
I01
sg81
F25.0
sg15
I00
sbsg448
g0
(g219
g2
Ntp2749
Rp2750
(dp2751
g14
I00
sg32
I01
sg81
I00
sg15
I00
sbsbag0
(g67
g2
Ntp2752
Rp2753
(dp2754
g14
I00
sg32
I01
sg15
I00
sg2465
g0
(g85
g2
Ntp2755
Rp2756
(dp2757
g14
I00
sg32
I01
sg81
F-20.0
sg15
I00
sbsg2469
g0
(g85
g2
Ntp2758
Rp2759
(dp2760
g14
I00
sg32
I01
sg81
F2.0
sg15
I00
sbsg2473
g0
(g85
g2
Ntp2761
Rp2762
(dp2763
g14
I00
sg32
I01
sg81
F5.0
sg15
I00
sbsg1067
g0
(g85
g2
Ntp2764
Rp2765
(dp2766
g14
I00
sg32
I01
sg81
F1.0
sg15
I00
sbsg11
(lp2767
g2465
ag2469
ag2473
ag1067
ag2481
ag448
asg2481
g0
(g85
g2
Ntp2768
Rp2769
(dp2770
g14
I00
sg32
I01
sg81
F25.0
sg15
I00
sbsg448
g0
(g219
g2
Ntp2771
Rp2772
(dp2773
g14
I00
sg32
I01
sg81
I01
sg15
I00
sbsbag0
(g67
g2
Ntp2774
Rp2775
(dp2776
g14
I00
sg32
I01
sg15
I00
sg2465
g0
(g85
g2
Ntp2777
Rp2778
(dp2779
g14
I00
sg32
I01
sg81
F-15.0
sg15
I00
sbsg2469
g0
(g85
g2
Ntp2780
Rp2781
(dp2782
g14
I00
sg32
I01
sg81
F2.0
sg15
I00
sbsg2473
g0
(g85
g2
Ntp2783
Rp2784
(dp2785
g14
I00
sg32
I01
sg81
F5.0
sg15
I00
sbsg1067
g0
(g85
g2
Ntp2786
Rp2787
(dp2788
g14
I00
sg32
I01
sg81
F2.0
sg15
I00
sbsg11
(lp2789
g2465
ag2469
ag2473
ag1067
ag2481
ag448
asg2481
g0
(g85
g2
Ntp2790
Rp2791
(dp2792
g14
I00
sg32
I01
sg81
F25.0
sg15
I00
sbsg448
g0
(g219
g2
Ntp2793
Rp2794
(dp2795
g14
I00
sg32
I01
sg81
I00
sg15
I00
sbsbag0
(g67
g2
Ntp2796
Rp2797
(dp2798
g14
I00
sg32
I01
sg15
I00
sg2465
g0
(g85
g2
Ntp2799
Rp2800
(dp2801
g14
I00
sg32
I01
sg81
F-15.0
sg15
I00
sbsg2469
g0
(g85
g2
Ntp2802
Rp2803
(dp2804
g14
I00
sg32
I01
sg81
F2.0
sg15
I00
sbsg2473
g0
(g85
g2
Ntp2805
Rp2806
(dp2807
g14
I00
sg32
I01
sg81
F5.0
sg15
I00
sbsg1067
g0
(g85
g2
Ntp2808
Rp2809
(dp2810
g14
I00
sg32
I01
sg81
F2.0
sg15
I00
sbsg11
(lp2811
g2465
ag2469
ag2473
ag1067
ag2481
ag448
asg2481
g0
(g85
g2
Ntp2812
Rp2813
(dp2814
g14
I00
sg32
I01
sg81
F25.0
sg15
I00
sbsg448
g0
(g219
g2
Ntp2815
Rp2816
(dp2817
g14
I00
sg32
I01
sg81
I01
sg15
I00
sbsbag0
(g67
g2
Ntp2818
Rp2819
(dp2820
g14
I00
sg32
I01
sg15
I00
sg2465
g0
(g85
g2
Ntp2821
Rp2822
(dp2823
g14
I00
sg32
I01
sg81
F-15.0
sg15
I00
sbsg2469
g0
(g85
g2
Ntp2824
Rp2825
(dp2826
g14
I00
sg32
I01
sg81
F2.0
sg15
I00
sbsg2473
g0
(g85
g2
Ntp2827
Rp2828
(dp2829
g14
I00
sg32
I01
sg81
F5.0
sg15
I00
sbsg1067
g0
(g85
g2
Ntp2830
Rp2831
(dp2832
g14
I00
sg32
I01
sg81
F3.0
sg15
I00
sbsg11
(lp2833
g2465
ag2469
ag2473
ag1067
ag2481
ag448
asg2481
g0
(g85
g2
Ntp2834
Rp2835
(dp2836
g14
I00
sg32
I01
sg81
F25.0
sg15
I00
sbsg448
g0
(g219
g2
Ntp2837
Rp2838
(dp2839
g14
I00
sg32
I01
sg81
I00
sg15
I00
sbsbag0
(g67
g2
Ntp2840
Rp2841
(dp2842
g14
I00
sg32
I01
sg15
I00
sg2465
g0
(g85
g2
Ntp2843
Rp2844
(dp2845
g14
I00
sg32
I01
sg81
F-15.0
sg15
I00
sbsg2469
g0
(g85
g2
Ntp2846
Rp2847
(dp2848
g14
I00
sg32
I01
sg81
F2.0
sg15
I00
sbsg2473
g0
(g85
g2
Ntp2849
Rp2850
(dp2851
g14
I00
sg32
I01
sg81
F5.0
sg15
I00
sbsg1067
g0
(g85
g2
Ntp2852
Rp2853
(dp2854
g14
I00
sg32
I01
sg81
F3.0
sg15
I00
sbsg11
(lp2855
g2465
ag2469
ag2473
ag1067
ag2481
ag448
asg2481
g0
(g85
g2
Ntp2856
Rp2857
(dp2858
g14
I00
sg32
I01
sg81
F25.0
sg15
I00
sbsg448
g0
(g219
g2
Ntp2859
Rp2860
(dp2861
g14
I00
sg32
I01
sg81
I01
sg15
I00
sbsbag0
(g67
g2
Ntp2862
Rp2863
(dp2864
g14
I00
sg32
I01
sg15
I00
sg2465
g0
(g85
g2
Ntp2865
Rp2866
(dp2867
g14
I00
sg32
I01
sg81
I-5
sg15
I00
sbsg2469
g0
(g85
g2
Ntp2868
Rp2869
(dp2870
g14
I00
sg32
I01
sg81
F5.0
sg15
I00
sbsg2473
g0
(g85
g2
Ntp2871
Rp2872
(dp2873
g14
I00
sg32
I01
sg81
F9999999.0
sg15
I00
sbsg1067
g0
(g85
g2
Ntp2874
Rp2875
(dp2876
g14
I00
sg32
I01
sg81
F1.0
sg15
I00
sbsg11
(lp2877
g2465
ag2469
ag2473
ag1067
ag2481
ag448
asg2481
g0
(g85
g2
Ntp2878
Rp2879
(dp2880
g14
I00
sg32
I01
sg81
F20.0
sg15
I00
sbsg448
g0
(g219
g2
Ntp2881
Rp2882
(dp2883
g14
I00
sg32
I01
sg81
I00
sg15
I00
sbsbag0
(g67
g2
Ntp2884
Rp2885
(dp2886
g14
I00
sg32
I01
sg15
I00
sg2465
g0
(g85
g2
Ntp2887
Rp2888
(dp2889
g14
I00
sg32
I01
sg81
I-5
sg15
I00
sbsg2469
g0
(g85
g2
Ntp2890
Rp2891
(dp2892
g14
I00
sg32
I01
sg81
F5.0
sg15
I00
sbsg2473
g0
(g85
g2
Ntp2893
Rp2894
(dp2895
g14
I00
sg32
I01
sg81
F9999999.0
sg15
I00
sbsg1067
g0
(g85
g2
Ntp2896
Rp2897
(dp2898
g14
I00
sg32
I01
sg81
F1.0
sg15
I00
sbsg11
(lp2899
g2465
ag2469
ag2473
ag1067
ag2481
ag448
asg2481
g0
(g85
g2
Ntp2900
Rp2901
(dp2902
g14
I00
sg32
I01
sg81
F20.0
sg15
I00
sbsg448
g0
(g219
g2
Ntp2903
Rp2904
(dp2905
g14
I00
sg32
I01
sg81
I01
sg15
I00
sbsbag0
(g67
g2
Ntp2906
Rp2907
(dp2908
g14
I00
sg32
I01
sg15
I00
sg2465
g0
(g85
g2
Ntp2909
Rp2910
(dp2911
g14
I00
sg32
I01
sg81
I-5
sg15
I00
sbsg2469
g0
(g85
g2
Ntp2912
Rp2913
(dp2914
g14
I00
sg32
I01
sg81
F5.0
sg15
I00
sbsg2473
g0
(g85
g2
Ntp2915
Rp2916
(dp2917
g14
I00
sg32
I01
sg81
F9999999.0
sg15
I00
sbsg1067
g0
(g85
g2
Ntp2918
Rp2919
(dp2920
g14
I00
sg32
I01
sg81
F2.0
sg15
I00
sbsg11
(lp2921
g2465
ag2469
ag2473
ag1067
ag2481
ag448
asg2481
g0
(g85
g2
Ntp2922
Rp2923
(dp2924
g14
I00
sg32
I01
sg81
F20.0
sg15
I00
sbsg448
g0
(g219
g2
Ntp2925
Rp2926
(dp2927
g14
I00
sg32
I01
sg81
I00
sg15
I00
sbsbag0
(g67
g2
Ntp2928
Rp2929
(dp2930
g14
I00
sg32
I01
sg15
I00
sg2465
g0
(g85
g2
Ntp2931
Rp2932
(dp2933
g14
I00
sg32
I01
sg81
I-5
sg15
I00
sbsg2469
g0
(g85
g2
Ntp2934
Rp2935
(dp2936
g14
I00
sg32
I01
sg81
F5.0
sg15
I00
sbsg2473
g0
(g85
g2
Ntp2937
Rp2938
(dp2939
g14
I00
sg32
I01
sg81
F9999999.0
sg15
I00
sbsg1067
g0
(g85
g2
Ntp2940
Rp2941
(dp2942
g14
I00
sg32
I01
sg81
F2.0
sg15
I00
sbsg11
(lp2943
g2465
ag2469
ag2473
ag1067
ag2481
ag448
asg2481
g0
(g85
g2
Ntp2944
Rp2945
(dp2946
g14
I00
sg32
I01
sg81
F20.0
sg15
I00
sbsg448
g0
(g219
g2
Ntp2947
Rp2948
(dp2949
g14
I00
sg32
I01
sg81
I01
sg15
I00
sbsbag0
(g67
g2
Ntp2950
Rp2951
(dp2952
g14
I00
sg32
I01
sg15
I00
sg2465
g0
(g85
g2
Ntp2953
Rp2954
(dp2955
g14
I00
sg32
I01
sg81
I-5
sg15
I00
sbsg2469
g0
(g85
g2
Ntp2956
Rp2957
(dp2958
g14
I00
sg32
I01
sg81
F5.0
sg15
I00
sbsg2473
g0
(g85
g2
Ntp2959
Rp2960
(dp2961
g14
I00
sg32
I01
sg81
F9999999.0
sg15
I00
sbsg1067
g0
(g85
g2
Ntp2962
Rp2963
(dp2964
g14
I00
sg32
I01
sg81
F3.0
sg15
I00
sbsg11
(lp2965
g2465
ag2469
ag2473
ag1067
ag2481
ag448
asg2481
g0
(g85
g2
Ntp2966
Rp2967
(dp2968
g14
I00
sg32
I01
sg81
F20.0
sg15
I00
sbsg448
g0
(g219
g2
Ntp2969
Rp2970
(dp2971
g14
I00
sg32
I01
sg81
I00
sg15
I00
sbsbag0
(g67
g2
Ntp2972
Rp2973
(dp2974
g14
I00
sg32
I01
sg15
I00
sg2465
g0
(g85
g2
Ntp2975
Rp2976
(dp2977
g14
I00
sg32
I01
sg81
I-5
sg15
I00
sbsg2469
g0
(g85
g2
Ntp2978
Rp2979
(dp2980
g14
I00
sg32
I01
sg81
F5.0
sg15
I00
sbsg2473
g0
(g85
g2
Ntp2981
Rp2982
(dp2983
g14
I00
sg32
I01
sg81
F9999999.0
sg15
I00
sbsg1067
g0
(g85
g2
Ntp2984
Rp2985
(dp2986
g14
I00
sg32
I01
sg81
F3.0
sg15
I00
sbsg11
(lp2987
g2465
ag2469
ag2473
ag1067
ag2481
ag448
asg2481
g0
(g85
g2
Ntp2988
Rp2989
(dp2990
g14
I00
sg32
I01
sg81
F20.0
sg15
I00
sbsg448
g0
(g219
g2
Ntp2991
Rp2992
(dp2993
g14
I00
sg32
I01
sg81
I01
sg15
I00
sbsbatp2994
Rp2995
(dp2996
g14
I00
sg32
I01
sg15
I00
sg33
I1
sbsg34
g2452
sg35
S'PFClusterTimeSelector'
p2997
sbsg827
g462
sg984
g924
ssS'siPixelQualityESProducer'
p2998
g0
(g7
g2
Ntp2999
Rp3000
(dp3001
g11
(lp3002
S'ListOfRecordToMerge'
p3003
asg14
I00
sg15
I01
sg16
I40
sg17
g18
sg3003
g0
(g65
g20
(lp3004
g0
(g67
g2
Ntp3005
Rp3006
(dp3007
g14
I00
sg32
I01
sg15
I00
sS'record'
p3008
g0
(g77
g2
Ntp3009
Rp3010
(dp3011
g14
I00
sg32
I01
sg81
S'SiPixelQualityFromDbRcd'
p3012
sg15
I00
sbsS'tag'
p3013
g0
(g77
g2
Ntp3014
Rp3015
(dp3016
g14
I00
sg32
I01
sg81
g100
sg15
I00
sbsg11
(lp3017
g3008
ag3013
asbag0
(g67
g2
Ntp3018
Rp3019
(dp3020
g14
I00
sg32
I01
sg15
I00
sg3008
g0
(g77
g2
Ntp3021
Rp3022
(dp3023
g14
I00
sg32
I01
sg81
S'SiPixelDetVOffRcd'
p3024
sg15
I00
sbsg3013
g0
(g77
g2
Ntp3025
Rp3026
(dp3027
g14
I00
sg32
I01
sg81
g100
sg15
I00
sbsg11
(lp3028
g3008
ag3013
asbatp3029
Rp3030
(dp3031
g14
I00
sg32
I01
sg15
I00
sg33
I1
sbsg34
g2998
sg35
S'SiPixelQualityESProducer'
p3032
sbsS'GlobalTag'
p3033
g0
(cFWCore.ParameterSet.Modules
ESSource
p3034
g2
Ntp3035
Rp3036
(dp3037
g11
(lp3038
S'DBParameters'
p3039
aS'BlobStreamerName'
p3040
aS'toGet'
p3041
aS'connect'
p3042
aS'globaltag'
p3043
asg14
I00
sg15
I01
sg3043
g0
(g77
g2
Ntp3044
Rp3045
(dp3046
g14
I00
sg32
I01
sg81
S'GR_P_V56::All'
p3047
sg15
I01
sbsg16
I10
sg17
S'/cvmfs/cms.cern.ch/slc6_amd64_gcc491/cms/cmssw-patch/CMSSW_7_4_4_patch2/python/Configuration/StandardSequences/FrontierConditions_GlobalTag_cfi.py'
p3048
sg3041
g0
(g65
g20
(lp3049
tp3050
Rp3051
(dp3052
g14
I00
sg32
I01
sg15
I00
sg33
I1
sbsg3039
g0
(g67
g2
Ntp3053
Rp3054
(dp3055
g14
I00
sg32
I01
sS'authenticationPath'
p3056
g0
(g77
g2
Ntp3057
Rp3058
(dp3059
g14
I00
sg32
I00
sg81
g100
sg15
I00
sbsS'connectionRetrialPeriod'
p3060
g0
(g166
g2
Ntp3061
Rp3062
(dp3063
g14
I00
sg32
I00
sg81
I10
sg15
I00
sbsg15
I00
sS'idleConnectionCleanupPeriod'
p3064
g0
(g166
g2
Ntp3065
Rp3066
(dp3067
g14
I00
sg32
I00
sg81
I10
sg15
I00
sbsS'messageLevel'
p3068
g0
(g166
g2
Ntp3069
Rp3070
(dp3071
g14
I00
sg32
I00
sg81
I0
sg15
I00
sbsS'enablePoolAutomaticCleanUp'
p3072
g0
(g219
g2
Ntp3073
Rp3074
(dp3075
g14
I00
sg32
I00
sg81
I00
sg15
I00
sbsS'enableConnectionSharing'
p3076
g0
(g219
g2
Ntp3077
Rp3078
(dp3079
g14
I00
sg32
I00
sg81
I01
sg15
I00
sbsS'enableReadOnlySessionOnUpdateConnection'
p3080
g0
(g219
g2
Ntp3081
Rp3082
(dp3083
g14
I00
sg32
I00
sg81
I00
sg15
I00
sbsg11
(lp3084
g3056
ag3080
ag3064
ag3068
ag3072
ag3076
aS'connectionRetrialTimeOut'
p3085
aS'connectionTimeOut'
p3086
aS'authenticationSystem'
p3087
ag3060
asg3086
g0
(g166
g2
Ntp3088
Rp3089
(dp3090
g14
I00
sg32
I00
sg81
I60
sg15
I00
sbsg3087
g0
(g166
g2
Ntp3091
Rp3092
(dp3093
g14
I00
sg32
I00
sg81
I0
sg15
I00
sbsg3085
g0
(g166
g2
Ntp3094
Rp3095
(dp3096
g14
I00
sg32
I00
sg81
I60
sg15
I00
sbsbsg3042
g0
(g77
g2
Ntp3097
Rp3098
(dp3099
g14
I00
sg32
I01
sg81
S'frontier://FrontierProd/CMS_COND_31X_GLOBALTAG'
p3100
sg15
I00
sbsg34
g3033
sg3040
g0
(g77
g2
Ntp3101
Rp3102
(dp3103
g14
I00
sg32
I00
sg81
S'TBufferBlobStreamingService'
p3104
sg15
I00
sbsg35
S'PoolDBESSource'
p3105
sbsg442
g338
sS'CSCTightHaloFilter'
p3106
g0
(cFWCore.ParameterSet.Modules
EDFilter
p3107
g2
Ntp3108
Rp3109
(dp3110
g11
(lp3111
S'taggingMode'
p3112
asg14
I00
sg15
I01
sg16
I5
sg17
S'/cvmfs/cms.cern.ch/slc6_amd64_gcc491/cms/cmssw-patch/CMSSW_7_4_4_patch2/python/RecoMET/METFilters/CSCTightHaloFilter_cfi.py'
p3113
sg3112
g0
(g219
g2
Ntp3114
Rp3115
(dp3116
g14
I00
sg32
I01
sg81
I01
sg15
I00
sbsg34
g3106
sg35
g3106
sbsS'_Process__endpaths'
p3117
g0
(cFWCore.ParameterSet.DictTypes
SortedKeysDict
p3118
c__builtin__
dict
p3119
(dp3120
S'e1'
p3121
g0
(cFWCore.ParameterSet.SequenceTypes
EndPath
p3122
g2
Ntp3123
Rp3124
(dp3125
g14
I00
sg43
g0
(g44
g2
Ntp3126
Rp3127
(dp3128
g48
(lp3129
g0
(cFWCore.ParameterSet.Modules
OutputModule
p3130
g2
Ntp3131
Rp3132
(dp3133
g11
(lp3134
S'fileName'
p3135
aS'SelectEvents'
p3136
aS'outputCommands'
p3137
asg14
I00
sg15
I00
sg3137
g0
(g19
g20
(lp3138
S'keep *'
p3139
atp3140
Rp3141
(dp3142
g14
I00
sg32
I00
sg15
I00
sg33
I1
sbsg17
g1987
sg3136
g0
(g67
g2
Ntp3143
Rp3144
(dp3145
g14
I00
sg32
I00
sg3136
g0
(g19
g20
(lp3146
S'p'
p3147
atp3148
Rp3149
(dp3150
g14
I00
sg32
I01
sg15
I00
sg33
I1
sbsg15
I00
sg11
(lp3151
g3136
asbsg16
I36
sg34
S'out'
p3152
sg3135
g0
(g77
g2
Ntp3153
Rp3154
(dp3155
g14
I00
sg32
I00
sg81
S'skim.root'
p3156
sg15
I00
sbsg35
S'PoolOutputModule'
p3157
sbasbsg15
I00
sg34
g3121
sbstp3158
Rp3159
(dp3160
S'list'
p3161
(lp3162
g3121
asbsg3147
g0
(cFWCore.ParameterSet.SequenceTypes
Path
p3163
g2
Ntp3164
Rp3165
(dp3166
g14
I00
sg43
g0
(g44
g2
Ntp3167
Rp3168
(dp3169
g48
(lp3170
g3109
ag2422
ag1969
ag2388
ag2406
ag0
(g3107
g2
Ntp3171
Rp3172
(dp3173
g11
(lp3174
g92
aS'minNumber'
p3175
asg14
I00
sg15
I00
sg3175
g0
(g144
g2
Ntp3176
Rp3177
(dp3178
g14
I00
sg32
I01
sg81
I1
sg15
I00
sbsg92
g0
(g93
g2
Ntp3179
Rp3180
(dp3181
g14
I00
sg32
I01
sg15
I00
sg97
g2404
sg99
g100
sg101
g100
sbsg17
g1987
sg16
I124
sg34
S'metCounter'
p3182
sg35
S'CandViewCountFilter'
p3183
sbasbsg15
I00
sg34
g3147
sbsS'MuonDetLayerGeometryESProducer'
p3184
g0
(g7
g2
Ntp3185
Rp3186
(dp3187
g11
(lp3188
sg14
I00
sg15
I00
sg16
I40
sg17
g18
sg34
g3184
sg35
g3184
sbsS'EcalEndcapGeometryFromDBEP'
p3189
g0
(g7
g2
Ntp3190
Rp3191
(dp3192
g11
(lp3193
g2062
asg14
I00
sg15
I01
sg16
I40
sg17
g18
sg34
g3189
sg2062
g0
(g219
g2
Ntp3194
Rp3195
(dp3196
g14
I00
sg32
I01
sg81
I01
sg15
I01
sbsg35
g3189
sbsg2452
g2454
sg827
g462
sS'MessageLogger'
p3197
g0
(cFWCore.ParameterSet.Modules
Service
p3198
g2
Ntp3199
Rp3200
(dp3201
g14
I00
sS'suppressInfo'
p3202
g0
(g19
g20
(lp3203
tp3204
Rp3205
(dp3206
g14
I00
sg32
I00
sg15
I00
sg33
I1
sbsS'suppressDebug'
p3207
g0
(g19
g20
(lp3208
tp3209
Rp3210
(dp3211
g14
I00
sg32
I00
sg15
I00
sg33
I1
sbsS'cout'
p3212
g0
(g67
g2
Ntp3213
Rp3214
(dp3215
g14
I00
sg32
I00
sS'placeholder'
p3216
g0
(g219
g2
Ntp3217
Rp3218
(dp3219
g14
I00
sg32
I00
sg81
I01
sg15
I00
sbsg15
I00
sg11
(lp3220
g3216
asbsg16
I10
sS'debugModules'
p3221
g0
(g19
g20
(lp3222
tp3223
Rp3224
(dp3225
g14
I00
sg32
I00
sg15
I00
sg33
I1
sbsg35
g3197
sS'fwkJobReports'
p3226
g0
(g19
g20
(lp3227
S'FrameworkJobReport'
p3228
atp3229
Rp3230
(dp3231
g14
I00
sg32
I00
sg15
I00
sg33
I1
sbsg11
(lp3232
g3202
aS'debugs'
p3233
ag3207
ag3212
aS'cerr_stats'
p3234
aS'warnings'
p3235
aS'default'
p3236
aS'statistics'
p3237
aS'cerr'
p3238
ag3228
aS'suppressWarning'
p3239
aS'errors'
p3240
aS'destinations'
p3241
ag3221
aS'infos'
p3242
aS'categories'
p3243
ag3226
asg3237
g0
(g19
g20
(lp3244
g3234
atp3245
Rp3246
(dp3247
g14
I00
sg32
I00
sg15
I00
sg33
I1
sbsg17
S'/afs/cern.ch/user/c/cheidegg/p/CMSSW_7_4_4_patch2/python/FWCore/ParameterSet/Modules.py'
p3248
sg3241
g0
(g19
g20
(lp3249
g3235
ag3240
ag3242
ag3233
ag3212
ag3238
atp3250
Rp3251
(dp3252
g14
I00
sg32
I00
sg15
I00
sg33
I1
sbsg3233
g0
(g67
g2
Ntp3253
Rp3254
(dp3255
g14
I00
sg32
I00
sg3216
g0
(g219
g2
Ntp3256
Rp3257
(dp3258
g14
I00
sg32
I00
sg81
I01
sg15
I00
sbsg15
I00
sg11
(lp3259
g3216
asbsg3235
g0
(g67
g2
Ntp3260
Rp3261
(dp3262
g14
I00
sg32
I00
sg3216
g0
(g219
g2
Ntp3263
Rp3264
(dp3265
g14
I00
sg32
I00
sg81
I01
sg15
I00
sbsg15
I00
sg11
(lp3266
g3216
asbsg3240
g0
(g67
g2
Ntp3267
Rp3268
(dp3269
g14
I00
sg32
I00
sg3216
g0
(g219
g2
Ntp3270
Rp3271
(dp3272
g14
I00
sg32
I00
sg81
I01
sg15
I00
sbsg15
I00
sg11
(lp3273
g3216
asbsg3228
g0
(g67
g2
Ntp3274
Rp3275
(dp3276
g14
I00
sg32
I00
sg15
I00
sg3236
g0
(g67
g2
Ntp3277
Rp3278
(dp3279
g14
I00
sg32
I00
sS'limit'
p3280
g0
(g166
g2
Ntp3281
Rp3282
(dp3283
g14
I00
sg32
I00
sg81
I0
sg15
I00
sbsg15
I00
sg11
(lp3284
g3280
asbsS'FwkJob'
p3285
g0
(g67
g2
Ntp3286
Rp3287
(dp3288
g14
I00
sg32
I00
sg15
I00
sg3280
g0
(g166
g2
Ntp3289
Rp3290
(dp3291
g14
I00
sg32
I00
sg81
I10000000
sg15
I00
sbsg11
(lp3292
S'optionalPSet'
p3293
ag3280
asg3293
g0
(g219
g2
Ntp3294
Rp3295
(dp3296
g14
I00
sg32
I00
sg81
I01
sg15
I00
sbsbsg11
(lp3297
g3236
ag3293
ag3285
asg3293
g0
(g219
g2
Ntp3298
Rp3299
(dp3300
g14
I00
sg32
I00
sg81
I01
sg15
I00
sbsbsg3239
g0
(g19
g20
(lp3301
tp3302
Rp3303
(dp3304
g14
I00
sg32
I00
sg15
I00
sg33
I1
sbsg3242
g0
(g67
g2
Ntp3305
Rp3306
(dp3307
g14
I00
sg32
I00
sg15
I00
sS'Root_NoDictionary'
p3308
g0
(g67
g2
Ntp3309
Rp3310
(dp3311
g14
I00
sg32
I00
sg15
I00
sg3280
g0
(g166
g2
Ntp3312
Rp3313
(dp3314
g14
I00
sg32
I00
sg81
I0
sg15
I00
sbsg11
(lp3315
g3293
ag3280
asg3293
g0
(g219
g2
Ntp3316
Rp3317
(dp3318
g14
I00
sg32
I00
sg81
I01
sg15
I00
sbsbsg11
(lp3319
g3293
ag3308
ag3216
asg3293
g0
(g219
g2
Ntp3320
Rp3321
(dp3322
g14
I00
sg32
I00
sg81
I01
sg15
I00
sbsg3216
g0
(g219
g2
Ntp3323
Rp3324
(dp3325
g14
I00
sg32
I00
sg81
I01
sg15
I00
sbsbsg3243
g0
(g19
g20
(lp3326
g3285
aS'FwkReport'
p3327
aS'FwkSummary'
p3328
ag3308
atp3329
Rp3330
(dp3331
g14
I00
sg32
I00
sg15
I00
sg33
I1
sbsg15
I00
sg3234
g0
(g67
g2
Ntp3332
Rp3333
(dp3334
g14
I00
sg32
I00
sg15
I00
sg3293
g0
(g219
g2
Ntp3335
Rp3336
(dp3337
g14
I00
sg32
I00
sg81
I01
sg15
I00
sbsg11
(lp3338
g84
aS'output'
p3339
ag3293
asg84
g0
(g77
g2
Ntp3340
Rp3341
(dp3342
g14
I00
sg32
I00
sg81
S'WARNING'
p3343
sg15
I00
sbsg3339
g0
(g77
g2
Ntp3344
Rp3345
(dp3346
g14
I00
sg32
I00
sg81
g3238
sg15
I00
sbsbsg3236
g0
(g67
g2
Ntp3347
Rp3348
(dp3349
g14
I00
sg32
I00
sg15
I00
sg11
(lp3350
sbsg3238
g0
(g67
g2
Ntp3351
Rp3352
(dp3353
g14
I00
sg32
I00
sS'noTimeStamps'
p3354
g0
(g219
g2
Ntp3355
Rp3356
(dp3357
g14
I00
sg32
I00
sg81
I00
sg15
I00
sbsg3327
g0
(g67
g2
Ntp3358
Rp3359
(dp3360
g14
I00
sg32
I00
sg15
I01
sS'reportEvery'
p3361
g0
(g166
g2
Ntp3362
Rp3363
(dp3364
g14
I00
sg32
I00
sg81
I50
sg15
I01
sbsg3280
g0
(g166
g2
Ntp3365
Rp3366
(dp3367
g14
I00
sg32
I00
sg81
I10000000
sg15
I00
sbsg11
(lp3368
g3361
ag3293
ag3280
asg3293
g0
(g219
g2
Ntp3369
Rp3370
(dp3371
g14
I00
sg32
I00
sg81
I01
sg15
I00
sbsbsg15
I00
sg3236
g0
(g67
g2
Ntp3372
Rp3373
(dp3374
g14
I00
sg32
I00
sg3280
g0
(g166
g2
Ntp3375
Rp3376
(dp3377
g14
I00
sg32
I00
sg81
I10000000
sg15
I00
sbsg15
I00
sg11
(lp3378
g3280
asbsg3308
g0
(g67
g2
Ntp3379
Rp3380
(dp3381
g14
I00
sg32
I00
sg15
I00
sg3280
g0
(g166
g2
Ntp3382
Rp3383
(dp3384
g14
I00
sg32
I00
sg81
I0
sg15
I00
sbsg11
(lp3385
g3293
ag3280
asg3293
g0
(g219
g2
Ntp3386
Rp3387
(dp3388
g14
I00
sg32
I00
sg81
I01
sg15
I00
sbsbsS'INFO'
p3389
g0
(g67
g2
Ntp3390
Rp3391
(dp3392
g14
I00
sg32
I00
sg3280
g0
(g166
g2
Ntp3393
Rp3394
(dp3395
g14
I00
sg32
I00
sg81
I0
sg15
I00
sbsg15
I00
sg11
(lp3396
g3280
asbsg3293
g0
(g219
g2
Ntp3397
Rp3398
(dp3399
g14
I00
sg32
I00
sg81
I01
sg15
I00
sbsg3285
g0
(g67
g2
Ntp3400
Rp3401
(dp3402
g14
I00
sg32
I00
sg15
I00
sg3280
g0
(g166
g2
Ntp3403
Rp3404
(dp3405
g14
I00
sg32
I00
sg81
I0
sg15
I00
sbsg11
(lp3406
g3293
ag3280
asg3293
g0
(g219
g2
Ntp3407
Rp3408
(dp3409
g14
I00
sg32
I00
sg81
I01
sg15
I00
sbsbsg3328
g0
(g67
g2
Ntp3410
Rp3411
(dp3412
g14
I00
sg32
I00
sg15
I00
sg3361
g0
(g166
g2
Ntp3413
Rp3414
(dp3415
g14
I00
sg32
I00
sg81
I1
sg15
I00
sbsg3280
g0
(g166
g2
Ntp3416
Rp3417
(dp3418
g14
I00
sg32
I00
sg81
I10000000
sg15
I00
sbsg11
(lp3419
g3361
ag3293
ag3280
asg3293
g0
(g219
g2
Ntp3420
Rp3421
(dp3422
g14
I00
sg32
I00
sg81
I01
sg15
I00
sbsbsg11
(lp3423
g3389
ag3354
ag3327
ag3236
ag3308
ag84
ag3285
ag3328
ag3293
asg84
g0
(g77
g2
Ntp3424
Rp3425
(dp3426
g14
I00
sg32
I00
sg81
g3389
sg15
I00
sbsbsbsg907
g869
sS'METSignificance_params'
p3427
g0
(g67
g2
Ntp3428
Rp3429
(dp3430
g14
I00
sg32
I01
sS'PF_EtResType6'
p3431
g0
(g953
g20
(lp3432
F0.0
aF1.22
aF0.05
atp3433
Rp3434
(dp3435
g14
I00
sg32
I01
sg15
I00
sbsS'HB_EtResPar'
p3436
g0
(g953
g20
(lp3437
F0.0
aF1.22
aF0.05
atp3438
Rp3439
(dp3440
g14
I00
sg32
I01
sg15
I00
sbsS'jdphi6'
p3441
g0
(g953
g20
(lp3442
F0.084
aF0.08
aF0.072
aF0.065
aF0.066
aF0.06
aF0.051
aF0.049
aF0.045
aF0.045
atp3443
Rp3444
(dp3445
g14
I00
sg32
I01
sg15
I00
sbsS'jdphi3'
p3446
g0
(g953
g20
(lp3447
F0.042
aF0.043
aF0.044
aF0.043
aF0.041
aF0.039
aF0.039
aF0.036
aF0.034
aF0.031
atp3448
Rp3449
(dp3450
g14
I00
sg32
I01
sg15
I00
sbsS'jdpt9'
p3451
g0
(g953
g20
(lp3452
F0.843
aF0.885
aF1.245
aF1.665
aF1.944
aF1.981
aF1.972
aF2.875
aF3.923
aF7.51
atp3453
Rp3454
(dp3455
g14
I00
sg32
I01
sg15
I00
sbsS'jdpt8'
p3456
g0
(g953
g20
(lp3457
F0.889
aF0.939
aF1.166
aF1.365
aF1.553
aF1.805
aF2.06
aF2.22
aF2.268
aF2.247
atp3458
Rp3459
(dp3460
g14
I00
sg32
I01
sg15
I00
sbsS'jdpt7'
p3461
g0
(g953
g20
(lp3462
F1.094
aF1.139
aF1.436
aF1.672
aF1.831
aF2.05
aF2.267
aF2.549
aF2.785
aF2.86
atp3463
Rp3464
(dp3465
g14
I00
sg32
I01
sg15
I00
sbsS'jdpt6'
p3466
g0
(g953
g20
(lp3467
F1.213
aF1.298
aF1.716
aF2.015
aF2.191
aF2.612
aF2.863
aF2.879
aF2.925
aF2.902
atp3468
Rp3469
(dp3470
g14
I00
sg32
I01
sg15
I00
sbsS'jdpt5'
p3471
g0
(g953
g20
(lp3472
F1.049
aF1.149
aF1.607
aF1.869
aF2.012
aF2.219
aF2.289
aF2.412
aF2.695
aF2.865
atp3473
Rp3474
(dp3475
g14
I00
sg32
I01
sg15
I00
sbsS'jdpt4'
p3476
g0
(g953
g20
(lp3477
F0.85
aF0.961
aF1.337
aF1.593
aF1.854
aF2.005
aF2.209
aF2.533
aF2.812
aF3.047
atp3478
Rp3479
(dp3480
g14
I00
sg32
I01
sg15
I00
sbsS'jdpt3'
p3481
g0
(g953
g20
(lp3482
F0.929
aF1.04
aF1.46
aF1.74
aF2.042
aF2.289
aF2.639
aF2.837
aF2.946
aF2.971
atp3483
Rp3484
(dp3485
g14
I00
sg32
I01
sg15
I00
sbsS'jdpt2'
p3486
g0
(g953
g20
(lp3487
F0.841
aF0.937
aF1.316
aF1.605
aF1.919
aF2.295
aF2.562
aF2.722
aF2.943
aF3.293
atp3488
Rp3489
(dp3490
g14
I00
sg32
I01
sg15
I00
sbsS'EE_EtResPar'
p3491
g0
(g953
g20
(lp3492
F0.2
aF0.03
aF0.005
atp3493
Rp3494
(dp3495
g14
I00
sg32
I01
sg15
I00
sbsS'jdpt0'
p3496
g0
(g953
g20
(lp3497
F0.749
aF0.829
aF1.099
aF1.355
aF1.584
aF1.807
aF2.035
aF2.217
aF2.378
aF2.591
atp3498
Rp3499
(dp3500
g14
I00
sg32
I01
sg15
I00
sbsg11
(lp3501
S'resolutionsEra'
p3502
ag3436
aS'EE_PhiResPar'
p3503
ag3451
ag3456
ag3461
ag3466
ag3471
ag3476
ag3481
ag3486
aS'jdpt1'
p3504
ag3496
aS'HE_EtResPar'
p3505
aS'HF_PhiResPar'
p3506
aS'PF_PhiResType7'
p3507
aS'HE_PhiResPar'
p3508
ag3491
aS'PF_PhiResType2'
p3509
aS'PF_PhiResType3'
p3510
aS'HF_EtResPar'
p3511
aS'resolutionsAlgo'
p3512
aS'PF_PhiResType6'
p3513
aS'HB_PhiResPar'
p3514
aS'PF_PhiResType4'
p3515
aS'PF_PhiResType5'
p3516
aS'ptresolthreshold'
p3517
aS'EB_EtResPar'
p3518
aS'jdphi8'
p3519
aS'EB_PhiResPar'
p3520
aS'jdphi9'
p3521
aS'PF_PhiResType1'
p3522
aS'jdphi4'
p3523
aS'HO_PhiResPar'
p3524
aS'jdphi2'
p3525
aS'jdphi1'
p3526
aS'jdphi0'
p3527
aS'jdphi7'
p3528
ag3441
aS'jdphi5'
p3529
aS'HO_EtResPar'
p3530
ag3446
aS'PF_EtResType5'
p3531
aS'PF_EtResType4'
p3532
aS'PF_EtResType7'
p3533
ag3431
aS'PF_EtResType1'
p3534
aS'PF_EtResType3'
p3535
aS'PF_EtResType2'
p3536
asg3506
g0
(g953
g20
(lp3537
F0.05022
atp3538
Rp3539
(dp3540
g14
I00
sg32
I01
sg15
I00
sbsg3508
g0
(g953
g20
(lp3541
F0.02511
atp3542
Rp3543
(dp3544
g14
I00
sg32
I01
sg15
I00
sbsg3504
g0
(g953
g20
(lp3545
F0.718
aF0.813
aF1.133
aF1.384
aF1.588
aF1.841
aF2.115
aF2.379
aF2.508
aF2.772
atp3546
Rp3547
(dp3548
g14
I00
sg32
I01
sg15
I00
sbsg3509
g0
(g953
g20
(lp3549
F0.002
atp3550
Rp3551
(dp3552
g14
I00
sg32
I01
sg15
I00
sbsg3510
g0
(g953
g20
(lp3553
F0.002
atp3554
Rp3555
(dp3556
g14
I00
sg32
I01
sg15
I00
sbsg3511
g0
(g953
g20
(lp3557
F0.0
aF1.82
aF0.09
atp3558
Rp3559
(dp3560
g14
I00
sg32
I01
sg15
I00
sbsg3502
g0
(g77
g2
Ntp3561
Rp3562
(dp3563
g14
I00
sg32
I01
sg81
S'Spring10'
p3564
sg15
I00
sbsg3513
g0
(g953
g20
(lp3565
F0.02511
atp3566
Rp3567
(dp3568
g14
I00
sg32
I01
sg15
I00
sbsg3507
g0
(g953
g20
(lp3569
F0.02511
atp3570
Rp3571
(dp3572
g14
I00
sg32
I01
sg15
I00
sbsg3515
g0
(g953
g20
(lp3573
F0.0028
aF0.0
aF0.0022
atp3574
Rp3575
(dp3576
g14
I00
sg32
I01
sg15
I00
sbsg3516
g0
(g953
g20
(lp3577
F0.1
aF0.1
aF0.13
atp3578
Rp3579
(dp3580
g14
I00
sg32
I01
sg15
I00
sbsg3517
g0
(g85
g2
Ntp3581
Rp3582
(dp3583
g14
I00
sg32
I01
sg81
F10.0
sg15
I00
sbsg3530
g0
(g953
g20
(lp3584
F0.0
aF1.3
aF0.005
atp3585
Rp3586
(dp3587
g14
I00
sg32
I01
sg15
I00
sbsg3518
g0
(g953
g20
(lp3588
F0.2
aF0.03
aF0.005
atp3589
Rp3590
(dp3591
g14
I00
sg32
I01
sg15
I00
sbsg34
g3427
sg3519
g0
(g953
g20
(lp3592
F0.059
aF0.057
aF0.051
aF0.044
aF0.038
aF0.035
aF0.037
aF0.032
aF0.028
aF0.028
atp3593
Rp3594
(dp3595
g14
I00
sg32
I01
sg15
I00
sbsg3520
g0
(g953
g20
(lp3596
F0.00502
atp3597
Rp3598
(dp3599
g14
I00
sg32
I01
sg15
I00
sbsg3521
g0
(g953
g20
(lp3600
F0.062
aF0.059
aF0.053
aF0.047
aF0.042
aF0.045
aF0.036
aF0.032
aF0.034
aF0.044
atp3601
Rp3602
(dp3603
g14
I00
sg32
I01
sg15
I00
sbsg3512
g0
(g77
g2
Ntp3604
Rp3605
(dp3606
g14
I00
sg32
I01
sg81
S'AK5PF'
p3607
sg15
I00
sbsg15
I00
sg3523
g0
(g953
g20
(lp3608
F0.042
aF0.042
aF0.043
aF0.042
aF0.038
aF0.036
aF0.036
aF0.033
aF0.031
aF0.031
atp3609
Rp3610
(dp3611
g14
I00
sg32
I01
sg15
I00
sbsg3524
g0
(g953
g20
(lp3612
F0.02511
atp3613
Rp3614
(dp3615
g14
I00
sg32
I01
sg15
I00
sbsg3525
g0
(g953
g20
(lp3616
F0.04
aF0.04
aF0.04
aF0.04
aF0.04
aF0.038
aF0.036
aF0.035
aF0.034
aF0.033
atp3617
Rp3618
(dp3619
g14
I00
sg32
I01
sg15
I00
sbsg3526
g0
(g953
g20
(lp3620
F0.034
aF0.035
aF0.035
aF0.035
aF0.035
aF0.034
aF0.031
aF0.03
aF0.029
aF0.027
atp3621
Rp3622
(dp3623
g14
I00
sg32
I01
sg15
I00
sbsg3527
g0
(g953
g20
(lp3624
F0.034
aF0.034
aF0.034
aF0.034
aF0.032
aF0.031
aF0.028
aF0.027
aF0.027
aF0.027
atp3625
Rp3626
(dp3627
g14
I00
sg32
I01
sg15
I00
sbsg3528
g0
(g953
g20
(lp3628
F0.077
aF0.072
aF0.059
aF0.05
aF0.045
aF0.042
aF0.039
aF0.039
aF0.037
aF0.031
atp3629
Rp3630
(dp3631
g14
I00
sg32
I01
sg15
I00
sbsg3503
g0
(g953
g20
(lp3632
F0.02511
atp3633
Rp3634
(dp3635
g14
I00
sg32
I01
sg15
I00
sbsg3529
g0
(g953
g20
(lp3636
F0.069
aF0.069
aF0.064
aF0.058
aF0.053
aF0.049
aF0.049
aF0.043
aF0.039
aF0.04
atp3637
Rp3638
(dp3639
g14
I00
sg32
I01
sg15
I00
sbsg3514
g0
(g953
g20
(lp3640
F0.02511
atp3641
Rp3642
(dp3643
g14
I00
sg32
I01
sg15
I00
sbsg3522
g0
(g953
g20
(lp3644
F0.002
atp3645
Rp3646
(dp3647
g14
I00
sg32
I01
sg15
I00
sbsg3531
g0
(g953
g20
(lp3648
F0.41
aF0.52
aF0.25
atp3649
Rp3650
(dp3651
g14
I00
sg32
I01
sg15
I00
sbsg3532
g0
(g953
g20
(lp3652
F0.042
aF0.1
aF0.0
atp3653
Rp3654
(dp3655
g14
I00
sg32
I01
sg15
I00
sbsg3533
g0
(g953
g20
(lp3656
F0.0
aF1.22
aF0.05
atp3657
Rp3658
(dp3659
g14
I00
sg32
I01
sg15
I00
sbsg3505
g0
(g953
g20
(lp3660
F0.0
aF1.3
aF0.05
atp3661
Rp3662
(dp3663
g14
I00
sg32
I01
sg15
I00
sbsg3534
g0
(g953
g20
(lp3664
F0.05
aI0
aI0
atp3665
Rp3666
(dp3667
g14
I00
sg32
I01
sg15
I00
sbsg3535
g0
(g953
g20
(lp3668
F0.05
aI0
aI0
atp3669
Rp3670
(dp3671
g14
I00
sg32
I01
sg15
I00
sbsg3536
g0
(g953
g20
(lp3672
F0.05
aI0
aI0
atp3673
Rp3674
(dp3675
g14
I00
sg32
I01
sg15
I00
sbsbsS'_Process__services'
p3676
(dp3677
g3197
g3200
ssg1345
g1152
sg1768
g1709
sS'CastorGeometryFromDBEP'
p3678
g0
(g7
g2
Ntp3679
Rp3680
(dp3681
g11
(lp3682
g2062
asg14
I00
sg15
I00
sg16
I40
sg17
g18
sg34
g3678
sg2062
g0
(g219
g2
Ntp3683
Rp3684
(dp3685
g14
I00
sg32
I01
sg81
I00
sg15
I00
sbsg35
g3678
sbsS'trackerGeometryDB'
p3686
g0
(g7
g2
Ntp3687
Rp3688
(dp3689
g11
(lp3690
g2172
aS'fromDDD'
p3691
aS'trackerGeometryConstants'
p3692
ag2062
aS'alignmentsLabel'
p3693
asg14
I00
sg2172
g0
(g77
g2
Ntp3694
Rp3695
(dp3696
g14
I00
sg32
I01
sg81
g100
sg15
I00
sbsg3692
g0
(g67
g2
Ntp3697
Rp3698
(dp3699
g14
I00
sg32
I01
sS'ROCS_X'
p3700
g0
(g166
g2
Ntp3701
Rp3702
(dp3703
g14
I00
sg32
I01
sg81
I0
sg15
I00
sbsS'ROCS_Y'
p3704
g0
(g166
g2
Ntp3705
Rp3706
(dp3707
g14
I00
sg32
I01
sg81
I0
sg15
I00
sbsS'upgradeGeometry'
p3708
g0
(g219
g2
Ntp3709
Rp3710
(dp3711
g14
I00
sg32
I01
sg81
I00
sg15
I00
sbsS'BIG_PIX_PER_ROC_Y'
p3712
g0
(g166
g2
Ntp3713
Rp3714
(dp3715
g14
I00
sg32
I01
sg81
I2
sg15
I00
sbsS'BIG_PIX_PER_ROC_X'
p3716
g0
(g166
g2
Ntp3717
Rp3718
(dp3719
g14
I00
sg32
I01
sg81
I1
sg15
I00
sbsS'ROWS_PER_ROC'
p3720
g0
(g166
g2
Ntp3721
Rp3722
(dp3723
g14
I00
sg32
I01
sg81
I80
sg15
I00
sbsg11
(lp3724
g3700
ag3704
ag3708
ag3712
ag3716
ag3720
aS'COLS_PER_ROC'
p3725
asg3725
g0
(g166
g2
Ntp3726
Rp3727
(dp3728
g14
I00
sg32
I01
sg81
I52
sg15
I00
sbsg15
I00
sbsg15
I00
sg3693
g0
(g77
g2
Ntp3729
Rp3730
(dp3731
g14
I00
sg32
I01
sg81
g100
sg15
I00
sbsg17
g18
sg16
I40
sg34
g3686
sg3691
g0
(g219
g2
Ntp3732
Rp3733
(dp3734
g14
I00
sg32
I01
sg81
I00
sg15
I00
sbsg2062
g0
(g219
g2
Ntp3735
Rp3736
(dp3737
g14
I00
sg32
I01
sg81
I01
sg15
I00
sbsg35
S'TrackerDigiGeometryESModule'
p3738
sbsg1135
g1024
sg3152
g3132
sS'eegeom'
p3739
g0
(g3034
g2
Ntp3740
Rp3741
(dp3742
g11
(lp3743
S'iovIsRunNotTime'
p3744
aS'recordName'
p3745
aS'firstValid'
p3746
asg14
I00
sg15
I00
sg16
I6
sg3745
g0
(g77
g2
Ntp3747
Rp3748
(dp3749
g14
I00
sg32
I01
sg81
S'EcalMappingRcd'
p3750
sg15
I00
sbsg17
S'/cvmfs/cms.cern.ch/slc6_amd64_gcc491/cms/cmssw-patch/CMSSW_7_4_4_patch2/python/Geometry/EcalMapping/EcalMappingRecord_cfi.py'
p3751
sg3746
g0
(cFWCore.ParameterSet.Types
vuint32
p3752
g20
(lp3753
I1
atp3754
Rp3755
(dp3756
g14
I00
sg32
I01
sg15
I00
sbsg34
g3739
sg3744
g0
(g219
g2
Ntp3757
Rp3758
(dp3759
g14
I00
sg32
I01
sg81
I01
sg15
I00
sbsg35
S'EmptyESSource'
p3760
sbsS'ecalSeverityLevel'
p3761
g0
(g7
g2
Ntp3762
Rp3763
(dp3764
g11
(lp3765
S'dbstatusMask'
p3766
aS'timeThresh'
p3767
aS'flagMask'
p3768
asg14
I00
sg15
I00
sg3768
g0
(g67
g2
Ntp3769
Rp3770
(dp3771
g14
I00
sg32
I01
sg15
I00
sS'kGood'
p3772
g0
(g19
g20
(lp3773
g3772
atp3774
Rp3775
(dp3776
g14
I00
sg32
I01
sg15
I00
sg33
I1
sbsS'kTime'
p3777
g0
(g19
g20
(lp3778
S'kOutOfTime'
p3779
atp3780
Rp3781
(dp3782
g14
I00
sg32
I01
sg15
I00
sg33
I1
sbsS'kRecovered'
p3783
g0
(g19
g20
(lp3784
S'kLeadingEdgeRecovered'
p3785
aS'kTowerRecovered'
p3786
atp3787
Rp3788
(dp3789
g14
I00
sg32
I01
sg15
I00
sg33
I1
sbsS'kWeird'
p3790
g0
(g19
g20
(lp3791
g3790
aS'kDiWeird'
p3792
atp3793
Rp3794
(dp3795
g14
I00
sg32
I01
sg15
I00
sg33
I1
sbsg11
(lp3796
g3783
ag3772
ag3777
ag3790
aS'kBad'
p3797
aS'kProblematic'
p3798
asg3797
g0
(g19
g20
(lp3799
S'kFaultyHardware'
p3800
aS'kDead'
p3801
aS'kKilled'
p3802
atp3803
Rp3804
(dp3805
g14
I00
sg32
I01
sg15
I00
sg33
I1
sbsg3798
g0
(g19
g20
(lp3806
S'kPoorReco'
p3807
aS'kPoorCalib'
p3808
aS'kNoisy'
p3809
aS'kSaturated'
p3810
atp3811
Rp3812
(dp3813
g14
I00
sg32
I01
sg15
I00
sg33
I1
sbsbsg16
I40
sg17
g18
sg3766
g0
(g67
g2
Ntp3814
Rp3815
(dp3816
g14
I00
sg32
I01
sg15
I00
sg3772
g0
(g19
g20
(lp3817
S'kOk'
p3818
atp3819
Rp3820
(dp3821
g14
I00
sg32
I01
sg15
I00
sg33
I1
sbsg3777
g0
(g19
g20
(lp3822
tp3823
Rp3824
(dp3825
g14
I00
sg32
I01
sg15
I00
sg33
I1
sbsg3783
g0
(g19
g20
(lp3826
tp3827
Rp3828
(dp3829
g14
I00
sg32
I01
sg15
I00
sg33
I1
sbsg3790
g0
(g19
g20
(lp3830
tp3831
Rp3832
(dp3833
g14
I00
sg32
I01
sg15
I00
sg33
I1
sbsg11
(lp3834
g3783
ag3772
ag3777
ag3790
ag3797
ag3798
asg3797
g0
(g19
g20
(lp3835
S'kNonRespondingIsolated'
p3836
aS'kDeadVFE'
p3837
aS'kDeadFE'
p3838
aS'kNoDataNoTP'
p3839
atp3840
Rp3841
(dp3842
g14
I00
sg32
I01
sg15
I00
sg33
I1
sbsg3798
g0
(g19
g20
(lp3843
S'kDAC'
p3844
aS'kNoLaser'
p3845
ag3809
aS'kNNoisy'
p3846
aS'kNNNoisy'
p3847
aS'kNNNNoisy'
p3848
aS'kNNNNNoisy'
p3849
aS'kFixedG6'
p3850
aS'kFixedG1'
p3851
aS'kFixedG0'
p3852
atp3853
Rp3854
(dp3855
g14
I00
sg32
I01
sg15
I00
sg33
I1
sbsbsg3767
g0
(g85
g2
Ntp3856
Rp3857
(dp3858
g14
I00
sg32
I01
sg81
F2.0
sg15
I00
sbsg34
g3761
sg35
S'EcalSeverityLevelESProducer'
p3859
sbsg2404
g2406
sS'_Process__vpsets'
p3860
(dp3861
sS'EcalTrigTowerConstituentsMapBuilder'
p3862
g0
(g7
g2
Ntp3863
Rp3864
(dp3865
g11
(lp3866
S'MapFile'
p3867
asg14
I00
sg15
I00
sg3867
g0
(g77
g2
Ntp3868
Rp3869
(dp3870
g14
I00
sg32
I00
sg81
S'Geometry/EcalMapping/data/EndCap_TTMap.txt'
p3871
sg15
I00
sbsg17
g18
sg16
I40
sg34
g3862
sg35
g3862
sbsS'siStripBackPlaneCorrectionDepESProducer'
p3872
g0
(g7
g2
Ntp3873
Rp3874
(dp3875
g11
(lp3876
S'LatencyRecord'
p3877
aS'BackPlaneCorrectionDeconvMode'
p3878
aS'BackPlaneCorrectionPeakMode'
p3879
asg14
I00
sg15
I00
sg16
I40
sg17
g18
sg3877
g0
(g67
g2
Ntp3880
Rp3881
(dp3882
g14
I00
sg32
I01
sg15
I00
sS'label'
p3883
g0
(g77
g2
Ntp3884
Rp3885
(dp3886
g14
I00
sg32
I00
sg81
g100
sg15
I00
sbsg3008
g0
(g77
g2
Ntp3887
Rp3888
(dp3889
g14
I00
sg32
I01
sg81
S'SiStripLatencyRcd'
p3890
sg15
I00
sbsg11
(lp3891
g3008
ag3883
asbsg3879
g0
(g67
g2
Ntp3892
Rp3893
(dp3894
g14
I00
sg32
I01
sg15
I00
sg3883
g0
(g77
g2
Ntp3895
Rp3896
(dp3897
g14
I00
sg32
I00
sg81
S'peak'
p3898
sg15
I00
sbsg3008
g0
(g77
g2
Ntp3899
Rp3900
(dp3901
g14
I00
sg32
I01
sg81
S'SiStripBackPlaneCorrectionRcd'
p3902
sg15
I00
sbsg11
(lp3903
g3008
ag3883
asbsg34
g3872
sg3878
g0
(g67
g2
Ntp3904
Rp3905
(dp3906
g14
I00
sg32
I01
sg15
I00
sg3883
g0
(g77
g2
Ntp3907
Rp3908
(dp3909
g14
I00
sg32
I00
sg81
S'deconvolution'
p3910
sg15
I00
sbsg3008
g0
(g77
g2
Ntp3911
Rp3912
(dp3913
g14
I00
sg32
I01
sg81
g3902
sg15
I00
sbsg11
(lp3914
g3008
ag3883
asbsg35
S'SiStripBackPlaneCorrectionDepESProducer'
p3915
sbsS'_Process__esprefers'
p3916
(dp3917
S'es_prefer_hcalHardcode'
p3918
g0
(cFWCore.ParameterSet.Modules
ESPrefer
p3919
g2
Ntp3920
Rp3921
(dp3922
g11
(lp3923
sg14
I00
sg15
I00
sS'_targetLabel'
p3924
S'es_hardcode'
p3925
sg16
I73
sg17
S'/afs/cern.ch/user/c/cheidegg/p/CMSSW_7_4_4_patch2/python/FWCore/ParameterSet/Modules.py'
p3926
sg34
g3918
sg35
S'HcalHardcodeCalibrations'
p3927
sbssg2032
g2024
sS'_Process__isStrict'
p3928
I00
sS'HepPDTESSource'
p3929
g0
(g3034
g2
Ntp3930
Rp3931
(dp3932
g11
(lp3933
S'pdtFileName'
p3934
asg14
I00
sg3934
g0
(cFWCore.ParameterSet.Types
FileInPath
p3935
g2
Ntp3936
Rp3937
(dp3938
g14
I00
sg32
I01
sg81
S'SimGeneral/HepPDTESSource/data/pythiaparticle.tbl'
p3939
sg15
I00
sbsg15
I00
sg16
I4
sg17
S'/cvmfs/cms.cern.ch/slc6_amd64_gcc491/cms/cmssw-patch/CMSSW_7_4_4_patch2/python/SimGeneral/HepPDTESSource/pythiapdt_cfi.py'
p3940
sg34
g3929
sg35
g3929
sbsS'_Process__outputmodules'
p3941
(dp3942
g3152
g3132
ssS'_Process__analyzers'
p3943
(dp3944
sg3121
g3124
sS'idealForDigiTrackerGeometry'
p3945
g0
(g7
g2
Ntp3946
Rp3947
(dp3948
g11
(lp3949
g2172
ag3691
ag3692
ag2062
ag3693
asg14
I00
sg2172
g0
(g77
g2
Ntp3950
Rp3951
(dp3952
g14
I00
sg32
I01
sg81
S'idealForDigi'
p3953
sg15
I01
sbsg3692
g0
(g67
g2
Ntp3954
Rp3955
(dp3956
g14
I00
sg32
I01
sg3700
g0
(g166
g2
Ntp3957
Rp3958
(dp3959
g14
I00
sg32
I01
sg81
I0
sg15
I00
sbsg3704
g0
(g166
g2
Ntp3960
Rp3961
(dp3962
g14
I00
sg32
I01
sg81
I0
sg15
I00
sbsg3708
g0
(g219
g2
Ntp3963
Rp3964
(dp3965
g14
I00
sg32
I01
sg81
I00
sg15
I00
sbsg3712
g0
(g166
g2
Ntp3966
Rp3967
(dp3968
g14
I00
sg32
I01
sg81
I2
sg15
I00
sbsg3716
g0
(g166
g2
Ntp3969
Rp3970
(dp3971
g14
I00
sg32
I01
sg81
I1
sg15
I00
sbsg3720
g0
(g166
g2
Ntp3972
Rp3973
(dp3974
g14
I00
sg32
I01
sg81
I80
sg15
I00
sbsg11
(lp3975
g3700
ag3704
ag3708
ag3712
ag3716
ag3720
ag3725
asg3725
g0
(g166
g2
Ntp3976
Rp3977
(dp3978
g14
I00
sg32
I01
sg81
I52
sg15
I00
sbsg15
I00
sbsg15
I01
sg3693
g0
(g77
g2
Ntp3979
Rp3980
(dp3981
g14
I00
sg32
I01
sg81
S'fakeForIdeal'
p3982
sg15
I01
sbsg17
S'/cvmfs/cms.cern.ch/slc6_amd64_gcc491/cms/cmssw-patch/CMSSW_7_4_4_patch2/python/Geometry/TrackerGeometryBuilder/idealForDigiTrackerGeometryDB_cff.py'
p3983
sg16
I8
sg34
g3945
sg3691
g0
(g219
g2
Ntp3984
Rp3985
(dp3986
g14
I00
sg32
I01
sg81
I00
sg15
I00
sbsg2062
g0
(g219
g2
Ntp3987
Rp3988
(dp3989
g14
I00
sg32
I01
sg81
I00
sg15
I01
sbsg35
g3738
sbsS'essourceEcalSev'
p3990
g0
(g3034
g2
Ntp3991
Rp3992
(dp3993
g11
(lp3994
g3744
ag3745
ag3746
asg14
I00
sg15
I00
sg16
I13
sg3745
g0
(g77
g2
Ntp3995
Rp3996
(dp3997
g14
I00
sg32
I01
sg81
S'EcalSeverityLevelAlgoRcd'
p3998
sg15
I00
sbsg17
S'/cvmfs/cms.cern.ch/slc6_amd64_gcc491/cms/cmssw-patch/CMSSW_7_4_4_patch2/python/RecoLocalCalo/EcalRecAlgos/EcalSeverityLevelESProducer_cfi.py'
p3999
sg3746
g0
(g3752
g20
(lp4000
I1
atp4001
Rp4002
(dp4003
g14
I00
sg32
I01
sg15
I00
sbsg34
g3990
sg3744
g0
(g219
g2
Ntp4004
Rp4005
(dp4006
g14
I00
sg32
I01
sg81
I01
sg15
I00
sbsg35
g3760
sbsS'_Process__looper'
p4007
NsS'_Process__paths'
p4008
g0
(g3118
g3119
(dp4009
g3147
g3165
stp4010
Rp4011
(dp4012
g3161
(lp4013
g3147
asbsS'_Process__subProcess'
p4014
NsS'options'
p4015
g0
(g67
g2
Ntp4016
Rp4017
(dp4018
g14
I00
sg32
I00
sg15
I00
sS'wantSummary'
p4019
g0
(g219
g2
Ntp4020
Rp4021
(dp4022
g14
I00
sg32
I00
sg81
I01
sg15
I00
sbsg11
(lp4023
g4019
asg34
g4015
sbsS'DTGeometryESModule'
p4024
g0
(g7
g2
Ntp4025
Rp4026
(dp4027
g11
(lp4028
g2172
ag3691
ag2062
ag3693
asg14
I00
sg2172
g0
(g77
g2
Ntp4029
Rp4030
(dp4031
g14
I00
sg32
I01
sg81
g100
sg15
I00
sbsg15
I00
sg3693
g0
(g77
g2
Ntp4032
Rp4033
(dp4034
g14
I00
sg32
I01
sg81
g100
sg15
I00
sbsg17
g18
sg16
I40
sg34
g4024
sg3691
g0
(g219
g2
Ntp4035
Rp4036
(dp4037
g14
I00
sg32
I01
sg81
I00
sg15
I00
sbsg2062
g0
(g219
g2
Ntp4038
Rp4039
(dp4040
g14
I00
sg32
I01
sg81
I01
sg15
I00
sbsg35
g4024
sbsS'VolumeBasedMagneticFieldESProducer'
p4041
g0
(g7
g2
Ntp4042
Rp4043
(dp4044
g11
(lp4045
S'valueOverride'
p4046
aS'debugBuilder'
p4047
ag3883
asg14
I00
sg4046
g0
(g166
g2
Ntp4048
Rp4049
(dp4050
g14
I00
sg32
I01
sg81
I-1
sg15
I00
sbsg16
I40
sg17
g18
sg3883
g0
(g77
g2
Ntp4051
Rp4052
(dp4053
g14
I00
sg32
I00
sg81
g100
sg15
I00
sbsg4047
g0
(g219
g2
Ntp4054
Rp4055
(dp4056
g14
I00
sg32
I00
sg81
I00
sg15
I00
sbsg34
g4041
sg35
S'VolumeBasedMagneticFieldESProducerFromDB'
p4057
sg15
I00
sbsS'CaloTopologyBuilder'
p4058
g0
(g7
g2
Ntp4059
Rp4060
(dp4061
g11
(lp4062
sg14
I00
sg15
I00
sg16
I40
sg17
g18
sg34
g4058
sg35
g4058
sbsS'SiStripRecHitMatcherESProducer'
p4063
g0
(g7
g2
Ntp4064
Rp4065
(dp4066
g11
(lp4067
S'PreFilter'
p4068
aS'ComponentName'
p4069
aS'NSigmaInside'
p4070
asg14
I00
sg15
I00
sg17
g18
sg4069
g0
(g77
g2
Ntp4071
Rp4072
(dp4073
g14
I00
sg32
I01
sg81
S'StandardMatcher'
p4074
sg15
I00
sbsg4068
g0
(g219
g2
Ntp4075
Rp4076
(dp4077
g14
I00
sg32
I01
sg81
I00
sg15
I00
sbsg16
I40
sg4070
g0
(g85
g2
Ntp4078
Rp4079
(dp4080
g14
I00
sg32
I01
sg81
F3.0
sg15
I00
sbsg34
g4063
sg35
g4063
sbsS'_Process__psets'
p4081
(dp4082
S'maxEvents'
p4083
g0
(g67
g2
Ntp4084
Rp4085
(dp4086
g14
I00
sg32
I00
sg15
I00
sg11
(lp4087
S'input'
p4088
asg34
g4083
sg4088
g0
(g166
g2
Ntp4089
Rp4090
(dp4091
g14
I00
sg32
I00
sg81
I10
sg15
I00
sbsbsg3427
g3429
sg2084
g2086
sg4015
g4017
sS'CondDBSetup'
p4092
g0
(g67
g2
Ntp4093
Rp4094
(dp4095
g14
I00
sg32
I01
sg15
I00
sg3039
g0
(g67
g2
Ntp4096
Rp4097
(dp4098
g14
I00
sg32
I01
sg3060
g0
(g166
g2
Ntp4099
Rp4100
(dp4101
g14
I00
sg32
I00
sg81
I10
sg15
I00
sbsg3056
g0
(g77
g2
Ntp4102
Rp4103
(dp4104
g14
I00
sg32
I00
sg81
g100
sg15
I00
sbsg15
I00
sg3064
g0
(g166
g2
Ntp4105
Rp4106
(dp4107
g14
I00
sg32
I00
sg81
I10
sg15
I00
sbsg3068
g0
(g166
g2
Ntp4108
Rp4109
(dp4110
g14
I00
sg32
I00
sg81
I0
sg15
I00
sbsg3072
g0
(g219
g2
Ntp4111
Rp4112
(dp4113
g14
I00
sg32
I00
sg81
I00
sg15
I00
sbsg3076
g0
(g219
g2
Ntp4114
Rp4115
(dp4116
g14
I00
sg32
I00
sg81
I01
sg15
I00
sbsg3080
g0
(g219
g2
Ntp4117
Rp4118
(dp4119
g14
I00
sg32
I00
sg81
I00
sg15
I00
sbsg11
(lp4120
g3056
ag3080
ag3064
ag3068
ag3072
ag3076
ag3085
ag3086
ag3087
ag3060
asg3086
g0
(g166
g2
Ntp4121
Rp4122
(dp4123
g14
I00
sg32
I00
sg81
I60
sg15
I00
sbsg3087
g0
(g166
g2
Ntp4124
Rp4125
(dp4126
g14
I00
sg32
I00
sg81
I0
sg15
I00
sbsg3085
g0
(g166
g2
Ntp4127
Rp4128
(dp4129
g14
I00
sg32
I00
sg81
I60
sg15
I00
sbsbsg11
(lp4130
g3039
asg34
g4092
sbssg283
g122
sS'_Process__essources'
p4131
(dp4132
g3739
g3741
sg3990
g3992
sg3033
g3036
sS'essourceSev'
p4133
g0
(g3034
g2
Ntp4134
Rp4135
(dp4136
g11
(lp4137
g3744
ag3745
ag3746
asg14
I00
sg15
I00
sg16
I25
sg3745
g0
(g77
g2
Ntp4138
Rp4139
(dp4140
g14
I00
sg32
I01
sg81
S'HcalSeverityLevelComputerRcd'
p4141
sg15
I00
sbsg17
S'/cvmfs/cms.cern.ch/slc6_amd64_gcc491/cms/cmssw-patch/CMSSW_7_4_4_patch2/python/RecoLocalCalo/HcalRecAlgos/hcalRecAlgoESProd_cfi.py'
p4142
sg3746
g0
(g3752
g20
(lp4143
I1
atp4144
Rp4145
(dp4146
g14
I00
sg32
I01
sg15
I00
sbsg34
g4133
sg3744
g0
(g219
g2
Ntp4147
Rp4148
(dp4149
g14
I00
sg32
I01
sg81
I01
sg15
I00
sbsg35
g3760
sbsg3929
g3931
sg3925
g0
(g3034
g2
Ntp4150
Rp4151
(dp4152
g11
(lp4153
g2084
aS'HERecalibration'
p4154
ag3041
aS'GainWidthsForTrigPrims'
p4155
aS'HEreCalibCutoff'
p4156
aS'HFRecalibration'
p4157
aS'iLumi'
p4158
ag2063
asg14
I00
sg2084
g2086
sg15
I01
sg16
I19
sg4154
g0
(g219
g2
Ntp4159
Rp4160
(dp4161
g14
I00
sg32
I01
sg81
I00
sg15
I00
sbsg2063
g0
(g67
g2
Ntp4162
Rp4163
(dp4164
g14
I00
sg32
I01
sg15
I00
sg2067
g0
(g166
g2
Ntp4165
Rp4166
(dp4167
g14
I00
sg32
I01
sg81
I3
sg15
I00
sbsg2071
g0
(g166
g2
Ntp4168
Rp4169
(dp4170
g14
I00
sg32
I01
sg81
I2
sg15
I00
sbsg11
(lp4171
g2067
ag2071
ag2076
asg2076
g0
(g77
g2
Ntp4172
Rp4173
(dp4174
g14
I00
sg32
I01
sg81
g2080
sg15
I00
sbsbsg3041
g0
(g19
g20
(lp4175
S'GainWidths'
p4176
atp4177
Rp4178
(dp4179
g14
I00
sg32
I00
sg15
I00
sg33
I1
sbsg4155
g0
(g219
g2
Ntp4180
Rp4181
(dp4182
g14
I00
sg32
I01
sg81
I00
sg15
I00
sbsg4156
g0
(g85
g2
Ntp4183
Rp4184
(dp4185
g14
I00
sg32
I01
sg81
F20.0
sg15
I00
sbsg4157
g0
(g219
g2
Ntp4186
Rp4187
(dp4188
g14
I00
sg32
I01
sg81
I00
sg15
I00
sbsg17
S'/cvmfs/cms.cern.ch/slc6_amd64_gcc491/cms/cmssw-patch/CMSSW_7_4_4_patch2/python/CalibCalorimetry/HcalPlugins/Hcal_Conditions_forGlobalTag_cff.py'
p4189
sg34
g3925
sg4158
g0
(g85
g2
Ntp4190
Rp4191
(dp4192
g14
I00
sg32
I01
sg81
F-1.0
sg15
I00
sbsg35
g3927
sbssS'hcalRecAlgos'
p4193
g0
(g7
g2
Ntp4194
Rp4195
(dp4196
g11
(lp4197
S'RecoveredRecHitBits'
p4198
aS'SeverityLevels'
p4199
aS'DropChannelStatusBits'
p4200
asg14
I00
sg15
I00
sg17
g18
sg4198
g0
(g19
g20
(lp4201
S'TimingAddedBit'
p4202
aS'TimingSubtractedBit'
p4203
atp4204
Rp4205
(dp4206
g14
I00
sg32
I01
sg15
I00
sg33
I1
sbsg16
I40
sg4200
g0
(g19
g20
(lp4207
S'HcalCellMask'
p4208
aS'HcalCellOff'
p4209
aS'HcalCellDead'
p4210
atp4211
Rp4212
(dp4213
g14
I00
sg32
I01
sg15
I00
sg33
I1
sbsg34
g4193
sg4199
g0
(g65
g20
(lp4214
g0
(g67
g2
Ntp4215
Rp4216
(dp4217
g14
I00
sg32
I01
sS'ChannelStatus'
p4218
g0
(g19
g20
(lp4219
g100
atp4220
Rp4221
(dp4222
g14
I00
sg32
I01
sg15
I00
sg33
I1
sbsg15
I00
sS'Level'
p4223
g0
(g166
g2
Ntp4224
Rp4225
(dp4226
g14
I00
sg32
I01
sg81
I0
sg15
I00
sbsg11
(lp4227
S'RecHitFlags'
p4228
ag4218
ag4223
asg4228
g0
(g19
g20
(lp4229
g100
atp4230
Rp4231
(dp4232
g14
I00
sg32
I01
sg15
I00
sg33
I1
sbsbag0
(g67
g2
Ntp4233
Rp4234
(dp4235
g14
I00
sg32
I01
sg4218
g0
(g19
g20
(lp4236
S'HcalCellCaloTowerProb'
p4237
atp4238
Rp4239
(dp4240
g14
I00
sg32
I01
sg15
I00
sg33
I1
sbsg15
I00
sg4223
g0
(g166
g2
Ntp4241
Rp4242
(dp4243
g14
I00
sg32
I01
sg81
I1
sg15
I00
sbsg11
(lp4244
g4228
ag4218
ag4223
asg4228
g0
(g19
g20
(lp4245
g100
atp4246
Rp4247
(dp4248
g14
I00
sg32
I01
sg15
I00
sg33
I1
sbsbag0
(g67
g2
Ntp4249
Rp4250
(dp4251
g14
I00
sg32
I01
sg4218
g0
(g19
g20
(lp4252
S'HcalCellExcludeFromHBHENoiseSummary'
p4253
atp4254
Rp4255
(dp4256
g14
I00
sg32
I01
sg15
I00
sg33
I1
sbsg15
I00
sg4223
g0
(g166
g2
Ntp4257
Rp4258
(dp4259
g14
I00
sg32
I01
sg81
I5
sg15
I00
sbsg11
(lp4260
g4228
ag4218
ag4223
asg4228
g0
(g19
g20
(lp4261
S'HSCP_R1R2'
p4262
aS'HSCP_FracLeader'
p4263
aS'HSCP_OuterEnergy'
p4264
aS'HSCP_ExpFit'
p4265
aS'ADCSaturationBit'
p4266
aS'HBHEIsolatedNoise'
p4267
aS'AddedSimHcalNoise'
p4268
atp4269
Rp4270
(dp4271
g14
I00
sg32
I01
sg15
I00
sg33
I1
sbsbag0
(g67
g2
Ntp4272
Rp4273
(dp4274
g14
I00
sg32
I01
sg4218
g0
(g19
g20
(lp4275
g100
atp4276
Rp4277
(dp4278
g14
I00
sg32
I01
sg15
I00
sg33
I1
sbsg15
I00
sg4223
g0
(g166
g2
Ntp4279
Rp4280
(dp4281
g14
I00
sg32
I01
sg81
I8
sg15
I00
sbsg11
(lp4282
g4228
ag4218
ag4223
asg4228
g0
(g19
g20
(lp4283
S'HBHEHpdHitMultiplicity'
p4284
aS'HBHEPulseShape'
p4285
aS'HOBit'
p4286
aS'HFDigiTime'
p4287
aS'HFInTimeWindow'
p4288
aS'ZDCBit'
p4289
aS'CalibrationBit'
p4290
aS'TimingErrorBit'
p4291
aS'HBHEFlatNoise'
p4292
aS'HBHESpikeNoise'
p4293
aS'HBHETriangleNoise'
p4294
aS'HBHETS4TS5Noise'
p4295
aS'HBHENegativeNoise'
p4296
atp4297
Rp4298
(dp4299
g14
I00
sg32
I01
sg15
I00
sg33
I1
sbsbag0
(g67
g2
Ntp4300
Rp4301
(dp4302
g14
I00
sg32
I01
sg4218
g0
(g19
g20
(lp4303
g100
atp4304
Rp4305
(dp4306
g14
I00
sg32
I01
sg15
I00
sg33
I1
sbsg15
I00
sg4223
g0
(g166
g2
Ntp4307
Rp4308
(dp4309
g14
I00
sg32
I01
sg81
I11
sg15
I00
sbsg11
(lp4310
g4228
ag4218
ag4223
asg4228
g0
(g19
g20
(lp4311
S'HFLongShort'
p4312
aS'HFPET'
p4313
aS'HFS8S1Ratio'
p4314
atp4315
Rp4316
(dp4317
g14
I00
sg32
I01
sg15
I00
sg33
I1
sbsbag0
(g67
g2
Ntp4318
Rp4319
(dp4320
g14
I00
sg32
I01
sg4218
g0
(g19
g20
(lp4321
S'HcalCellCaloTowerMask'
p4322
atp4323
Rp4324
(dp4325
g14
I00
sg32
I01
sg15
I00
sg33
I1
sbsg15
I00
sg4223
g0
(g166
g2
Ntp4326
Rp4327
(dp4328
g14
I00
sg32
I01
sg81
I12
sg15
I00
sbsg11
(lp4329
g4228
ag4218
ag4223
asg4228
g0
(g19
g20
(lp4330
g100
atp4331
Rp4332
(dp4333
g14
I00
sg32
I01
sg15
I00
sg33
I1
sbsbag0
(g67
g2
Ntp4334
Rp4335
(dp4336
g14
I00
sg32
I01
sg4218
g0
(g19
g20
(lp4337
S'HcalCellHot'
p4338
atp4339
Rp4340
(dp4341
g14
I00
sg32
I01
sg15
I00
sg33
I1
sbsg15
I00
sg4223
g0
(g166
g2
Ntp4342
Rp4343
(dp4344
g14
I00
sg32
I01
sg81
I15
sg15
I00
sbsg11
(lp4345
g4228
ag4218
ag4223
asg4228
g0
(g19
g20
(lp4346
g100
atp4347
Rp4348
(dp4349
g14
I00
sg32
I01
sg15
I00
sg33
I1
sbsbag0
(g67
g2
Ntp4350
Rp4351
(dp4352
g14
I00
sg32
I01
sg4218
g0
(g19
g20
(lp4353
g4209
ag4210
atp4354
Rp4355
(dp4356
g14
I00
sg32
I01
sg15
I00
sg33
I1
sbsg15
I00
sg4223
g0
(g166
g2
Ntp4357
Rp4358
(dp4359
g14
I00
sg32
I01
sg81
I20
sg15
I00
sbsg11
(lp4360
g4228
ag4218
ag4223
asg4228
g0
(g19
g20
(lp4361
g100
atp4362
Rp4363
(dp4364
g14
I00
sg32
I01
sg15
I00
sg33
I1
sbsbatp4365
Rp4366
(dp4367
g14
I00
sg32
I01
sg15
I00
sg33
I1
sbsg35
S'HcalRecAlgoESProducer'
p4368
sbsg2055
g2045
sg4083
g4085
sg329
g51
sS'CSCGeometryESModule'
p4369
g0
(g7
g2
Ntp4370
Rp4371
(dp4372
g11
(lp4373
g2172
aS'useDDD'
p4374
aS'debugV'
p4375
aS'useGangedStripsInME1a'
p4376
ag3693
aS'useOnlyWiresInME1a'
p4377
aS'useRealWireGeometry'
p4378
aS'useCentreTIOffsets'
p4379
ag2062
asg14
I00
sg2172
g0
(g77
g2
Ntp4380
Rp4381
(dp4382
g14
I00
sg32
I01
sg81
g100
sg15
I00
sbsg15
I00
sg4375
g0
(g219
g2
Ntp4383
Rp4384
(dp4385
g14
I00
sg32
I00
sg81
I00
sg15
I00
sbsg17
g18
sg4376
g0
(g219
g2
Ntp4386
Rp4387
(dp4388
g14
I00
sg32
I01
sg81
I01
sg15
I00
sbsg3693
g0
(g77
g2
Ntp4389
Rp4390
(dp4391
g14
I00
sg32
I01
sg81
g100
sg15
I00
sbsg4377
g0
(g219
g2
Ntp4392
Rp4393
(dp4394
g14
I00
sg32
I01
sg81
I00
sg15
I00
sbsg4374
g0
(g219
g2
Ntp4395
Rp4396
(dp4397
g14
I00
sg32
I01
sg81
I00
sg15
I00
sbsg16
I40
sg4379
g0
(g219
g2
Ntp4398
Rp4399
(dp4400
g14
I00
sg32
I01
sg81
I00
sg15
I00
sbsg34
g4369
sg4378
g0
(g219
g2
Ntp4401
Rp4402
(dp4403
g14
I00
sg32
I01
sg81
I01
sg15
I00
sbsg2062
g0
(g219
g2
Ntp4404
Rp4405
(dp4406
g14
I00
sg32
I01
sg81
I01
sg15
I00
sbsg35
g4369
sbsS'EcalBarrelGeometryFromDBEP'
p4407
g0
(g7
g2
Ntp4408
Rp4409
(dp4410
g11
(lp4411
g2062
asg14
I00
sg15
I01
sg16
I40
sg17
g18
sg34
g4407
sg2062
g0
(g219
g2
Ntp4412
Rp4413
(dp4414
g14
I00
sg32
I01
sg81
I01
sg15
I01
sbsg35
g4407
sbsS'trackerNumberingGeometryDB'
p4415
g0
(g7
g2
Ntp4416
Rp4417
(dp4418
g11
(lp4419
g2172
ag3691
asg14
I00
sg2172
g0
(g77
g2
Ntp4420
Rp4421
(dp4422
g14
I00
sg32
I01
sg81
g100
sg15
I00
sbsg15
I00
sg16
I40
sg17
g18
sg34
g4415
sg3691
g0
(g219
g2
Ntp4423
Rp4424
(dp4425
g14
I00
sg32
I01
sg81
I00
sg15
I00
sbsg35
S'TrackerGeometricDetESModule'
p4426
sbsS'_Process__name'
p4427
S'SKIM'
p4428
sg3925
g4151
sg1700
g917
sS'_cloneToObjectDict'
p4429
(dp4430
I48997264
g0
(g7
g2
Ntp4431
Rp4432
(dp4433
g11
(lp4434
g2172
aS'PrintDebugOutput'
p4435
aS'ThresholdForReducedGranularity'
p4436
aS'UseEmptyRunInfo'
p4437
aS'ReduceGranularity'
p4438
ag3003
asg14
I00
sg2172
g0
(g77
g2
Ntp4439
Rp4440
(dp4441
g14
I00
sg32
I01
sg81
g100
sg15
I00
sbsg15
I01
sg16
I40
sg17
g18
sg4436
g0
(g85
g2
Ntp4442
Rp4443
(dp4444
g14
I00
sg32
I01
sg81
F0.3
sg15
I00
sbsg34
S'siStripQualityESProducer'
p4445
sg4437
g0
(g219
g2
Ntp4446
Rp4447
(dp4448
g14
I00
sg32
I01
sg81
I00
sg15
I00
sbsg4438
g0
(g219
g2
Ntp4449
Rp4450
(dp4451
g14
I00
sg32
I01
sg81
I00
sg15
I00
sbsg3003
g0
(g65
g20
(lp4452
g0
(g67
g2
Ntp4453
Rp4454
(dp4455
g14
I00
sg32
I01
sg15
I00
sg3008
g0
(g77
g2
Ntp4456
Rp4457
(dp4458
g14
I00
sg32
I01
sg81
S'SiStripDetVOffRcd'
p4459
sg15
I00
sbsg3013
g0
(g77
g2
Ntp4460
Rp4461
(dp4462
g14
I00
sg32
I01
sg81
g100
sg15
I00
sbsg11
(lp4463
g3008
ag3013
asbag0
(g67
g2
Ntp4464
Rp4465
(dp4466
g14
I00
sg32
I01
sg15
I00
sg3008
g0
(g77
g2
Ntp4467
Rp4468
(dp4469
g14
I00
sg32
I01
sg81
S'SiStripDetCablingRcd'
p4470
sg15
I00
sbsg3013
g0
(g77
g2
Ntp4471
Rp4472
(dp4473
g14
I00
sg32
I01
sg81
g100
sg15
I00
sbsg11
(lp4474
g3008
ag3013
asbag0
(g67
g2
Ntp4475
Rp4476
(dp4477
g14
I00
sg32
I01
sg15
I00
sg3008
g0
(g77
g2
Ntp4478
Rp4479
(dp4480
g14
I00
sg32
I01
sg81
S'RunInfoRcd'
p4481
sg15
I00
sbsg3013
g0
(g77
g2
Ntp4482
Rp4483
(dp4484
g14
I00
sg32
I01
sg81
g100
sg15
I00
sbsg11
(lp4485
g3008
ag3013
asbag0
(g67
g2
Ntp4486
Rp4487
(dp4488
g14
I00
sg32
I01
sg15
I00
sg3008
g0
(g77
g2
Ntp4489
Rp4490
(dp4491
g14
I00
sg32
I01
sg81
S'SiStripBadChannelRcd'
p4492
sg15
I00
sbsg3013
g0
(g77
g2
Ntp4493
Rp4494
(dp4495
g14
I00
sg32
I01
sg81
g100
sg15
I00
sbsg11
(lp4496
g3008
ag3013
asbag0
(g67
g2
Ntp4497
Rp4498
(dp4499
g14
I00
sg32
I01
sg15
I00
sg3008
g0
(g77
g2
Ntp4500
Rp4501
(dp4502
g14
I00
sg32
I01
sg81
S'SiStripBadFiberRcd'
p4503
sg15
I00
sbsg3013
g0
(g77
g2
Ntp4504
Rp4505
(dp4506
g14
I00
sg32
I01
sg81
g100
sg15
I00
sbsg11
(lp4507
g3008
ag3013
asbag0
(g67
g2
Ntp4508
Rp4509
(dp4510
g14
I00
sg32
I01
sg15
I00
sg3008
g0
(g77
g2
Ntp4511
Rp4512
(dp4513
g14
I00
sg32
I01
sg81
S'SiStripBadModuleRcd'
p4514
sg15
I00
sbsg3013
g0
(g77
g2
Ntp4515
Rp4516
(dp4517
g14
I00
sg32
I01
sg81
g100
sg15
I00
sbsg11
(lp4518
g3008
ag3013
asbag0
(g67
g2
Ntp4519
Rp4520
(dp4521
g14
I00
sg32
I01
sg15
I00
sg3008
g0
(g77
g2
Ntp4522
Rp4523
(dp4524
g14
I00
sg32
I01
sg81
S'SiStripBadStripRcd'
p4525
sg15
I00
sbsg3013
g0
(g77
g2
Ntp4526
Rp4527
(dp4528
g14
I00
sg32
I01
sg81
g100
sg15
I00
sbsg11
(lp4529
g3008
ag3013
asbatp4530
Rp4531
(dp4532
g14
I00
sg32
I01
sg15
I00
sg33
I1
sbsg35
S'SiStripQualityESProducer'
p4533
sg4435
g0
(g219
g2
Ntp4534
Rp4535
(dp4536
g14
I00
sg32
I01
sg81
I00
sg15
I00
sbsbsI47305808
g4085
sI44692688
g4135
sI48969232
g0
(g7
g2
Ntp4537
Rp4538
(dp4539
g11
(lp4540
S'ComponentType'
p4541
ag4069
aS'parameters'
p4542
asg14
I00
sg15
I00
sg4542
g0
(g67
g2
Ntp4543
Rp4544
(dp4545
g14
I00
sg32
I01
sg15
I00
sg11
(lp4546
sbsg16
I40
sg4069
g0
(g77
g2
Ntp4547
Rp4548
(dp4549
g14
I00
sg32
I01
sg81
S'stripCPE'
p4550
sg15
I00
sbsg4541
g0
(g77
g2
Ntp4551
Rp4552
(dp4553
g14
I00
sg32
I01
sg81
S'SimpleStripCPE'
p4554
sg15
I00
sbsg17
g18
sg34
S'stripCPEESProducer'
p4555
sg35
S'StripCPEESProducer'
p4556
sbsI47814992
g3931
sI48998800
g4017
sI47705680
g4371
sI47782480
g0
(g7
g2
Ntp4557
Rp4558
(dp4559
g11
(lp4560
g2172
ag4374
ag4375
ag4376
ag3693
ag4377
ag4378
ag4379
ag2062
asg14
I00
sg2172
g0
(g77
g2
Ntp4561
Rp4562
(dp4563
g14
I00
sg32
I01
sg81
g3953
sg15
I01
sbsg15
I01
sg4375
g0
(g219
g2
Ntp4564
Rp4565
(dp4566
g14
I00
sg32
I00
sg81
I00
sg15
I00
sbsg17
S'/cvmfs/cms.cern.ch/slc6_amd64_gcc491/cms/cmssw-patch/CMSSW_7_4_4_patch2/python/Geometry/CSCGeometryBuilder/idealForDigiCscGeometryDB_cff.py'
p4567
sg4376
g0
(g219
g2
Ntp4568
Rp4569
(dp4570
g14
I00
sg32
I01
sg81
I01
sg15
I00
sbsg3693
g0
(g77
g2
Ntp4571
Rp4572
(dp4573
g14
I00
sg32
I01
sg81
g3982
sg15
I01
sbsg4377
g0
(g219
g2
Ntp4574
Rp4575
(dp4576
g14
I00
sg32
I01
sg81
I00
sg15
I00
sbsg4374
g0
(g219
g2
Ntp4577
Rp4578
(dp4579
g14
I00
sg32
I01
sg81
I00
sg15
I00
sbsg16
I8
sg4379
g0
(g219
g2
Ntp4580
Rp4581
(dp4582
g14
I00
sg32
I01
sg81
I00
sg15
I00
sbsg34
S'idealForDigiCSCGeometry'
p4583
sg4378
g0
(g219
g2
Ntp4584
Rp4585
(dp4586
g14
I00
sg32
I01
sg81
I01
sg15
I00
sbsg2062
g0
(g219
g2
Ntp4587
Rp4588
(dp4589
g14
I00
sg32
I01
sg81
I00
sg15
I01
sbsg35
g4369
sbsI44691920
g41
sI48970704
g4065
sI48936784
g3921
sI44691536
g917
sI44694992
g3763
sI44846608
g122
sI49000080
g2422
sI44846864
g331
sI47816528
g3036
sI47768592
g4409
sI44695504
g1976
sI47780944
g3864
sI44745424
g1969
sI47780624
g3680
sI44745360
g2013
sI47781392
g0
(g7
g2
Ntp4590
Rp4591
(dp4592
g11
(lp4593
sg14
I00
sg15
I00
sg16
I40
sg17
g18
sg34
S'EcalElectronicsMappingBuilder'
p4594
sg35
g4594
sbsI47769168
g0
(g7
g2
Ntp4595
Rp4596
(dp4597
g11
(lp4598
g2062
ag2063
asg14
I00
sg15
I01
sg16
I40
sg17
g18
sg2063
g0
(g67
g2
Ntp4599
Rp4600
(dp4601
g14
I00
sg32
I01
sg15
I00
sg2067
g0
(g166
g2
Ntp4602
Rp4603
(dp4604
g14
I00
sg32
I01
sg81
I3
sg15
I00
sbsg2071
g0
(g166
g2
Ntp4605
Rp4606
(dp4607
g14
I00
sg32
I01
sg81
I2
sg15
I00
sbsg11
(lp4608
g2067
ag2071
ag2076
asg2076
g0
(g77
g2
Ntp4609
Rp4610
(dp4611
g14
I00
sg32
I01
sg81
g2080
sg15
I00
sbsbsg34
S'HcalGeometryFromDBEP'
p4612
sg2062
g0
(g219
g2
Ntp4613
Rp4614
(dp4615
g14
I00
sg32
I01
sg81
I01
sg15
I01
sbsg35
g4612
sbsI48969360
g0
(g7
g2
Ntp4616
Rp4617
(dp4618
g11
(lp4619
g4541
ag4069
ag4542
asg14
I00
sg15
I01
sg4542
g0
(g67
g2
Ntp4620
Rp4621
(dp4622
g14
I00
sg32
I01
sS'maxChgOneMIP'
p4623
g0
(g85
g2
Ntp4624
Rp4625
(dp4626
g14
I00
sg32
I01
sg81
F6000.0
sg15
I00
sbsS'mLC_P2'
p4627
g0
(g85
g2
Ntp4628
Rp4629
(dp4630
g14
I00
sg32
I01
sg81
F0.3
sg15
I00
sbsS'mLC_P1'
p4631
g0
(g85
g2
Ntp4632
Rp4633
(dp4634
g14
I00
sg32
I01
sg81
F0.618
sg15
I00
sbsS'mLC_P0'
p4635
g0
(g85
g2
Ntp4636
Rp4637
(dp4638
g14
I00
sg32
I01
sg81
F-0.326
sg15
I00
sbsS'useLegacyError'
p4639
g0
(g219
g2
Ntp4640
Rp4641
(dp4642
g14
I00
sg32
I01
sg81
I00
sg15
I00
sbsS'mTIB_P1'
p4643
g0
(g85
g2
Ntp4644
Rp4645
(dp4646
g14
I00
sg32
I01
sg81
F0.202
sg15
I00
sbsS'mTEC_P1'
p4647
g0
(g85
g2
Ntp4648
Rp4649
(dp4650
g14
I00
sg32
I01
sg81
F0.471
sg15
I00
sbsS'mTEC_P0'
p4651
g0
(g85
g2
Ntp4652
Rp4653
(dp4654
g14
I00
sg32
I01
sg81
F-1.885
sg15
I00
sbsS'mTOB_P0'
p4655
g0
(g85
g2
Ntp4656
Rp4657
(dp4658
g14
I00
sg32
I01
sg81
F-1.026
sg15
I00
sbsS'mTOB_P1'
p4659
g0
(g85
g2
Ntp4660
Rp4661
(dp4662
g14
I00
sg32
I01
sg81
F0.253
sg15
I00
sbsS'mTIB_P0'
p4663
g0
(g85
g2
Ntp4664
Rp4665
(dp4666
g14
I00
sg32
I01
sg81
F-0.742
sg15
I00
sbsg11
(lp4667
g4623
ag4627
ag4631
ag4635
ag4639
ag4647
ag4651
ag4655
ag4659
ag4663
ag4643
aS'mTID_P0'
p4668
aS'mTID_P1'
p4669
asg4668
g0
(g85
g2
Ntp4670
Rp4671
(dp4672
g14
I00
sg32
I01
sg81
F-1.427
sg15
I00
sbsg4669
g0
(g85
g2
Ntp4673
Rp4674
(dp4675
g14
I00
sg32
I01
sg81
F0.433
sg15
I00
sbsg15
I00
sbsg16
I4
sg4069
g0
(g77
g2
Ntp4676
Rp4677
(dp4678
g14
I00
sg32
I01
sg81
S'StripCPEfromTrackAngle'
p4679
sg15
I00
sbsg4541
g0
(g77
g2
Ntp4680
Rp4681
(dp4682
g14
I00
sg32
I01
sg81
g4679
sg15
I00
sbsg17
S'/cvmfs/cms.cern.ch/slc6_amd64_gcc491/cms/cmssw-patch/CMSSW_7_4_4_patch2/python/RecoLocalTracker/SiStripRecHitConverter/StripCPEfromTrackAngle_cfi.py'
p4683
sg34
S'StripCPEfromTrackAngleESProducer'
p4684
sg35
g4556
sbsI47781648
g3741
sI47814672
g0
(g7
g2
Ntp4685
Rp4686
(dp4687
g11
(lp4688
S'version'
p4689
ag4046
ag3883
asg14
I00
sg15
I01
sg16
I40
sg17
g18
sg3883
g0
(g77
g2
Ntp4690
Rp4691
(dp4692
g14
I00
sg32
I00
sg81
S'ParabolicMf'
p4693
sg15
I01
sbsg4689
g0
(g77
g2
Ntp4694
Rp4695
(dp4696
g14
I00
sg32
I01
sg81
S'Parabolic'
p4697
sg15
I00
sbsg4046
g0
(g166
g2
Ntp4698
Rp4699
(dp4700
g14
I00
sg32
I01
sg81
I-1
sg15
I00
sbsg34
S'ParabolicParametrizedMagneticFieldProducer'
p4701
sg35
S'AutoParametrizedMagneticFieldProducer'
p4702
sbsI47769680
g0
(g7
g2
Ntp4703
Rp4704
(dp4705
g11
(lp4706
sg14
I00
sg15
I00
sg16
I40
sg17
g18
sg34
S'HcalAlignmentEP'
p4707
sg35
g4707
sbsI48998736
g3132
sI49013136
g3429
sI47749648
g3688
sI47770192
g2059
sI49052816
g59
sI48968912
g3874
sI49085840
g1152
sI47767056
g3186
sI47771216
g0
(g7
g2
Ntp4708
Rp4709
(dp4710
g11
(lp4711
S'Exclude'
p4712
ag2172
ag2063
asg14
I00
sg2172
g0
(g77
g2
Ntp4713
Rp4714
(dp4715
g14
I00
sg32
I01
sg81
g100
sg15
I00
sbsg15
I01
sg16
I5
sg17
S'/cvmfs/cms.cern.ch/slc6_amd64_gcc491/cms/cmssw-patch/CMSSW_7_4_4_patch2/python/Geometry/HcalEventSetup/HcalTopology_cfi.py'
p4716
sg2063
g0
(g67
g2
Ntp4717
Rp4718
(dp4719
g14
I00
sg32
I01
sg15
I00
sg2067
g0
(g166
g2
Ntp4720
Rp4721
(dp4722
g14
I00
sg32
I01
sg81
I3
sg15
I00
sbsg2071
g0
(g166
g2
Ntp4723
Rp4724
(dp4725
g14
I00
sg32
I01
sg81
I2
sg15
I00
sbsg11
(lp4726
g2067
ag2071
ag2076
asg2076
g0
(g77
g2
Ntp4727
Rp4728
(dp4729
g14
I00
sg32
I01
sg81
g2080
sg15
I00
sbsbsg34
S'hcalTopologyIdeal'
p4730
sg4712
g0
(g77
g2
Ntp4731
Rp4732
(dp4733
g14
I00
sg32
I00
sg81
g100
sg15
I00
sbsg35
S'HcalTopologyIdealEP'
p4734
sbsI47813392
g0
(g7
g2
Ntp4735
Rp4736
(dp4737
g11
(lp4738
g2172
ag3691
ag2062
ag3693
asg14
I00
sg2172
g0
(g77
g2
Ntp4739
Rp4740
(dp4741
g14
I00
sg32
I01
sg81
g3953
sg15
I01
sbsg15
I01
sg3693
g0
(g77
g2
Ntp4742
Rp4743
(dp4744
g14
I00
sg32
I01
sg81
g3982
sg15
I01
sbsg17
S'/cvmfs/cms.cern.ch/slc6_amd64_gcc491/cms/cmssw-patch/CMSSW_7_4_4_patch2/python/Geometry/DTGeometryBuilder/idealForDigiDtGeometryDB_cff.py'
p4745
sg16
I8
sg34
S'idealForDigiDTGeometry'
p4746
sg3691
g0
(g219
g2
Ntp4747
Rp4748
(dp4749
g14
I00
sg32
I01
sg81
I00
sg15
I00
sbsg2062
g0
(g219
g2
Ntp4750
Rp4751
(dp4752
g14
I00
sg32
I01
sg81
I00
sg15
I01
sbsg35
g4024
sbsI48936144
g2086
sI48971664
g3000
sI44744848
g2024
sI44691792
g2036
sI44843408
g1777
sI47747536
g0
(g7
g2
Ntp4753
Rp4754
(dp4755
g11
(lp4756
g4374
aS'compatibiltyWith11'
p4757
asg14
I00
sg15
I00
sg16
I40
sg17
g18
sg4374
g0
(g219
g2
Ntp4758
Rp4759
(dp4760
g14
I00
sg32
I00
sg81
I00
sg15
I00
sbsg4757
g0
(g219
g2
Ntp4761
Rp4762
(dp4763
g14
I00
sg32
I00
sg81
I01
sg15
I00
sbsg34
S'RPCGeometryESModule'
p4764
sg35
g4764
sbsI47768336
g3191
sI44745616
g3124
sI47780304
g0
(g7
g2
Ntp4765
Rp4766
(dp4767
g11
(lp4768
g2062
asg14
I00
sg15
I00
sg16
I40
sg17
g18
sg34
S'ZdcGeometryFromDBEP'
p4769
sg2062
g0
(g219
g2
Ntp4770
Rp4771
(dp4772
g14
I00
sg32
I01
sg81
I00
sg15
I00
sbsg35
g4769
sbsI44745488
g2406
sI47748560
g4417
sI49051472
g1709
sI47781840
g3947
sI47749840
g0
(g7
g2
Ntp4773
Rp4774
(dp4775
g11
(lp4776
sg14
I00
sg15
I00
sg16
I40
sg17
g18
sg34
S'TrackerRecoGeometryESProducer'
p4777
sg35
g4777
sbsI48970832
g0
(g7
g2
Ntp4778
Rp4779
(dp4780
g11
(lp4781
sg14
I00
sg15
I00
sg16
I40
sg17
g18
sg34
S'sistripconn'
p4782
sg35
S'SiStripConnectivity'
p4783
sbsI48935760
g0
(g7
g2
Ntp4784
Rp4785
(dp4786
g11
(lp4787
sg14
I00
sg15
I00
sg16
I40
sg17
g18
sg34
S'EcalLaserCorrectionService'
p4788
sg35
g4788
sbsI47814160
g4043
sI44695120
g1991
sI47816400
g4094
sI47768464
g0
(g7
g2
Ntp4789
Rp4790
(dp4791
g11
(lp4792
g2062
asg14
I00
sg15
I01
sg16
I40
sg17
g18
sg34
S'EcalPreshowerGeometryFromDBEP'
p4793
sg2062
g0
(g219
g2
Ntp4794
Rp4795
(dp4796
g14
I00
sg32
I01
sg81
I01
sg15
I01
sbsg35
g4793
sbsI44846992
g51
sI48938576
g0
(g7
g2
Ntp4797
Rp4798
(dp4799
g11
(lp4800
S'printDebug'
p4801
ag2172
aS'APVGain'
p4802
aS'AutomaticNormalization'
p4803
asg14
I00
sg2172
g0
(g77
g2
Ntp4804
Rp4805
(dp4806
g14
I00
sg32
I01
sg81
g100
sg15
I00
sbsg15
I00
sg4803
g0
(g219
g2
Ntp4807
Rp4808
(dp4809
g14
I00
sg32
I01
sg81
I00
sg15
I00
sbsg16
I40
sg4801
g0
(g219
g2
Ntp4810
Rp4811
(dp4812
g14
I00
sg32
I00
sg81
I00
sg15
I00
sbsg17
g18
sg4802
g0
(g65
g20
(lp4813
g0
(g67
g2
Ntp4814
Rp4815
(dp4816
g14
I00
sg32
I01
sg15
I00
sS'Label'
p4817
g0
(g77
g2
Ntp4818
Rp4819
(dp4820
g14
I00
sg32
I00
sg81
g100
sg15
I00
sbsS'Record'
p4821
g0
(g77
g2
Ntp4822
Rp4823
(dp4824
g14
I00
sg32
I01
sg81
S'SiStripApvGainRcd'
p4825
sg15
I00
sbsS'NormalizationFactor'
p4826
g0
(g85
g2
Ntp4827
Rp4828
(dp4829
g14
I00
sg32
I00
sg81
F1.0
sg15
I00
sbsg11
(lp4830
g4821
ag4826
ag4817
asbag0
(g67
g2
Ntp4831
Rp4832
(dp4833
g14
I00
sg32
I01
sg15
I00
sg4817
g0
(g77
g2
Ntp4834
Rp4835
(dp4836
g14
I00
sg32
I00
sg81
g100
sg15
I00
sbsg4821
g0
(g77
g2
Ntp4837
Rp4838
(dp4839
g14
I00
sg32
I01
sg81
S'SiStripApvGain2Rcd'
p4840
sg15
I00
sbsg4826
g0
(g85
g2
Ntp4841
Rp4842
(dp4843
g14
I00
sg32
I00
sg81
F1.0
sg15
I00
sbsg11
(lp4844
g4821
ag4826
ag4817
asbatp4845
Rp4846
(dp4847
g14
I00
sg32
I01
sg15
I00
sg33
I1
sbsg34
S'siStripGainESProducer'
p4848
sg35
S'SiStripGainESProducer'
p4849
sbsI48968208
g0
(g7
g2
Ntp4850
Rp4851
(dp4852
g11
(lp4853
g3877
aS'LorentzAngleDeconvMode'
p4854
aS'LorentzAnglePeakMode'
p4855
asg14
I00
sg15
I00
sg16
I40
sg17
g18
sg3877
g0
(g67
g2
Ntp4856
Rp4857
(dp4858
g14
I00
sg32
I01
sg15
I00
sg3883
g0
(g77
g2
Ntp4859
Rp4860
(dp4861
g14
I00
sg32
I00
sg81
g100
sg15
I00
sbsg3008
g0
(g77
g2
Ntp4862
Rp4863
(dp4864
g14
I00
sg32
I01
sg81
g3890
sg15
I00
sbsg11
(lp4865
g3008
ag3883
asbsg34
S'siStripLorentzAngleDepESProducer'
p4866
sg4855
g0
(g67
g2
Ntp4867
Rp4868
(dp4869
g14
I00
sg32
I01
sg15
I00
sg3883
g0
(g77
g2
Ntp4870
Rp4871
(dp4872
g14
I00
sg32
I00
sg81
g3898
sg15
I00
sbsg3008
g0
(g77
g2
Ntp4873
Rp4874
(dp4875
g14
I00
sg32
I01
sg81
S'SiStripLorentzAngleRcd'
p4876
sg15
I00
sbsg11
(lp4877
g3008
ag3883
asbsg35
S'SiStripLorentzAngleDepESProducer'
p4878
sg4854
g0
(g67
g2
Ntp4879
Rp4880
(dp4881
g14
I00
sg32
I01
sg15
I00
sg3883
g0
(g77
g2
Ntp4882
Rp4883
(dp4884
g14
I00
sg32
I00
sg81
g3910
sg15
I00
sbsg3008
g0
(g77
g2
Ntp4885
Rp4886
(dp4887
g14
I00
sg32
I01
sg81
g4876
sg15
I00
sbsg11
(lp4888
g3008
ag3883
asbsbsI44745296
g3172
sI48935952
g0
(g7
g2
Ntp4889
Rp4890
(dp4891
g11
(lp4892
S'file'
p4893
aS'dump'
p4894
asg14
I00
sg15
I00
sg4894
g0
(g19
g20
(lp4895
g100
atp4896
Rp4897
(dp4898
g14
I00
sg32
I00
sg15
I00
sg33
I1
sbsg16
I40
sg17
g18
sg4893
g0
(g77
g2
Ntp4899
Rp4900
(dp4901
g14
I00
sg32
I00
sg81
g100
sg15
I00
sbsg34
S'hcal_db_producer'
p4902
sg35
S'HcalDbProducer'
p4903
sbsI49027472
g924
sI48936720
g4151
sI49015504
g338
sI44693776
g4195
sI49060240
g462
sI47749776
g0
(g7
g2
Ntp4904
Rp4905
(dp4906
g11
(lp4907
sg14
I00
sg15
I00
sg16
I40
sg17
g18
sg34
S'GlobalTrackingGeometryESProducer'
p4908
sg35
g4908
sbsI48999120
g3109
sI49093520
g2454
sI47766864
g2119
sI47783056
g0
(g7
g2
Ntp4909
Rp4910
(dp4911
g11
(lp4912
g2172
asg14
I00
sg2172
g0
(g77
g2
Ntp4913
Rp4914
(dp4915
g14
I00
sg32
I01
sg81
g3982
sg15
I01
sbsg15
I01
sg16
I5
sg17
S'/cvmfs/cms.cern.ch/slc6_amd64_gcc491/cms/cmssw-patch/CMSSW_7_4_4_patch2/python/Alignment/CommonAlignmentProducer/fakeForIdealAlignmentProducer_cfi.py'
p4916
sg34
S'fakeForIdealAlignment'
p4917
sg35
S'FakeAlignmentProducer'
p4918
sbsI49132496
g1644
sI44694480
g3992
sI44695056
g2002
sI49122896
g1387
sI49061520
g869
sI48971536
g0
(g7
g2
Ntp4919
Rp4920
(dp4921
g11
(lp4922
sg14
I00
sg15
I00
sg16
I40
sg17
g18
sg34
S'CastorDbProducer'
p4923
sg35
g4923
sbsI47748176
g4026
sI47767440
g4060
sI44691664
g1702
sI44744976
g3165
sI47767952
g9
sI49050064
g1024
sI49013392
g2388
ssg4848
g4798
sg4764
g4754
sg4782
g4779
sg111
g59
sg4769
g4766
sg4777
g4774
sg1967
g1969
sg4866
g4851
sg4701
g4686
sg4555
g4538
sg4133
g4135
sg4612
g4596
sg4092
g4094
sg3918
g3921
sg4594
g4591
sg1988
g1976
sg4684
g4617
sS'_Process__aliases'
p4924
(dp4925
sg4908
g4905
sg2420
g2422
sg2000
g1991
sg984
g924
sg2386
g2388
sg4788
g4785
sg4707
g4704
sg4793
g4790
sg4923
g4920
sg4583
g4558
sg4902
g4890
sg4730
g4709
sS'_Process__schedule'
p4926
Nsg4445
g4432
sg4746
g4736
sS'_Process__modifiers'
p4927
(tsg4917
g4910
sS'_Process__filters'
p4928
(dp4929
g3182
g3172
sg3106
g3109
ssg1925
g1777
sS'_Process__esproducers'
p4930
(dp4931
g6
g9
sg4788
g4785
sg4777
g4774
sg4041
g4043
sg4684
g4617
sg3678
g3680
sg4058
g4060
sg4908
g4905
sg3686
g3688
sg4866
g4851
sg4730
g4709
sg4193
g4195
sg4707
g4704
sg4793
g4790
sg4923
g4920
sg4369
g4371
sg4407
g4409
sg4415
g4417
sg4594
g4591
sg3862
g3864
sg4583
g4558
sg2057
g2059
sg3872
g3874
sg4902
g4890
sg4848
g4798
sg4063
g4065
sg4764
g4754
sg4746
g4736
sg2117
g2119
sg4769
g4766
sg4024
g4026
sg4445
g4432
sg4782
g4779
sg2998
g3000
sg3945
g3947
sg4701
g4686
sg4555
g4538
sg3761
g3763
sg3184
g3186
sg3189
g3191
sg4917
g4910
sg4612
g4596
ssg1966
g1702
sg3182
g3172
sS'_Process__partialschedules'
p4932
(dp4933
sg1698
g1644
sg2034
g2036
sb.