ccopy_reg
_reconstructor
p0
(cFWCore.ParameterSet.Config
Process
p1
c__builtin__
object
p2
Ntp3
Rp4
(dp5
S'CaloGeometryBuilder'
p6
g0
(cFWCore.ParameterSet.Modules
ESProducer
p7
g2
Ntp8
Rp9
(dp10
S'_Parameterizable__parameterNames'
p11
(lp12
S'SelectedCalos'
p13
asS'_isFrozen'
p14
I00
sS'_isModified'
p15
I00
sS'_lineNumber'
p16
I40
sS'_filename'
p17
S'/afs/cern.ch/user/c/cheidegg/p/CMSSW_7_4_4_patch2/python/FWCore/ParameterSet/Modules.py'
p18
sg13
g0
(cFWCore.ParameterSet.Types
vstring
p19
c__builtin__
list
p20
(lp21
S'HCAL'
p22
aS'ZDC'
p23
aS'CASTOR'
p24
aS'EcalBarrel'
p25
aS'EcalEndcap'
p26
aS'EcalPreshower'
p27
aS'TOWER'
p28
atp29
Rp30
(dp31
g14
I00
sS'_ParameterTypeBase__isTracked'
p32
I01
sg15
I00
sS'_nPerLine'
p33
I1
sbsS'_Labelable__label'
p34
g6
sS'_TypedParameterizable__type'
p35
g6
sbsS'_Process__sequences'
p36
(dp37
S'particleFlowCluster'
p38
g0
(cFWCore.ParameterSet.SequenceTypes
Sequence
p39
g2
Ntp40
Rp41
(dp42
g14
I00
sS'_seq'
p43
g0
(cFWCore.ParameterSet.SequenceTypes
_SequenceCollection
p44
g2
Ntp45
Rp46
(dp47
S'_collection'
p48
(lp49
g0
(g39
g2
Ntp50
Rp51
(dp52
g14
I00
sg43
g0
(g44
g2
Ntp53
Rp54
(dp55
g48
(lp56
g0
(cFWCore.ParameterSet.Modules
EDProducer
p57
g2
Ntp58
Rp59
(dp60
g11
(lp61
S'producers'
p62
aS'navigator'
p63
asg14
I00
sg15
I00
sg16
I14
sg17
S'/cvmfs/cms.cern.ch/slc6_amd64_gcc491/cms/cmssw-patch/CMSSW_7_4_4_patch2/python/RecoParticleFlow/PFClusterProducer/particleFlowRecHitPS_cfi.py'
p64
sg62
g0
(cFWCore.ParameterSet.Types
VPSet
p65
g20
(lp66
g0
(cFWCore.ParameterSet.Types
PSet
p67
g2
Ntp68
Rp69
(dp70
g14
I00
sg32
I01
sg15
I00
sS'qualityTests'
p71
g0
(g65
g20
(lp72
g0
(g67
g2
Ntp73
Rp74
(dp75
g14
I00
sg32
I01
sS'name'
p76
g0
(cFWCore.ParameterSet.Types
string
p77
g2
Ntp78
Rp79
(dp80
g14
I00
sg32
I01
sS'_value'
p81
S'PFRecHitQTestThreshold'
p82
sg15
I00
sbsg11
(lp83
S'threshold'
p84
ag76
asg84
g0
(cFWCore.ParameterSet.Types
double
p85
g2
Ntp86
Rp87
(dp88
g14
I00
sg32
I01
sg81
F6.9999999999999999e-06
sg15
I00
sbsg15
I00
sbatp89
Rp90
(dp91
g14
I00
sg32
I01
sg15
I00
sg33
I1
sbsS'src'
p92
g0
(cFWCore.ParameterSet.Types
InputTag
p93
g2
Ntp94
Rp95
(dp96
g14
I00
sg32
I01
sg15
I00
sS'_InputTag__moduleLabel'
p97
S'ecalPreshowerRecHit'
p98
sS'_InputTag__processName'
p99
S''
p100
sS'_InputTag__productInstance'
p101
S'EcalRecHitsES'
p102
sbsg11
(lp103
g92
ag76
ag71
asg76
g0
(g77
g2
Ntp104
Rp105
(dp106
g14
I00
sg32
I01
sg81
S'PFPSRecHitCreator'
p107
sg15
I00
sbsbatp108
Rp109
(dp110
g14
I00
sg32
I01
sg15
I00
sg33
I1
sbsg34
S'particleFlowRecHitPS'
p111
sg63
g0
(g67
g2
Ntp112
Rp113
(dp114
g14
I00
sg32
I01
sg15
I00
sg76
g0
(g77
g2
Ntp115
Rp116
(dp117
g14
I00
sg32
I01
sg81
S'PFRecHitPreshowerNavigator'
p118
sg15
I00
sbsg11
(lp119
g76
asbsg35
S'PFRecHitProducer'
p120
sbag0
(g57
g2
Ntp121
Rp122
(dp123
g11
(lp124
S'pfClusterBuilder'
p125
aS'positionReCalc'
p126
aS'initialClusteringStep'
p127
aS'energyCorrector'
p128
aS'recHitCleaners'
p129
aS'seedFinder'
p130
aS'recHitsSource'
p131
asg14
I00
sg126
g0
(g67
g2
Ntp132
Rp133
(dp134
g14
I00
sg32
I01
sg15
I00
sg11
(lp135
sbsg15
I00
sg125
g0
(g67
g2
Ntp136
Rp137
(dp138
g14
I00
sg32
I01
sS'minFracTot'
p139
g0
(g85
g2
Ntp140
Rp141
(dp142
g14
I00
sg32
I01
sg81
F9.9999999999999995e-21
sg15
I00
sbsS'maxIterations'
p143
g0
(cFWCore.ParameterSet.Types
uint32
p144
g2
Ntp145
Rp146
(dp147
g14
I00
sg32
I01
sg81
I50
sg15
I00
sbsS'algoName'
p148
g0
(g77
g2
Ntp149
Rp150
(dp151
g14
I00
sg32
I01
sg81
S'Basic2DGenericPFlowClusterizer'
p152
sg15
I00
sbsg15
I00
sS'showerSigma'
p153
g0
(g85
g2
Ntp154
Rp155
(dp156
g14
I00
sg32
I01
sg81
F0.29999999999999999
sg15
I00
sbsS'positionCalc'
p157
g0
(g67
g2
Ntp158
Rp159
(dp160
g14
I00
sg32
I01
sS'logWeightDenominator'
p161
g0
(g85
g2
Ntp162
Rp163
(dp164
g14
I00
sg32
I01
sg81
F6.0000000000000002e-05
sg15
I00
sbsS'posCalcNCrystals'
p165
g0
(cFWCore.ParameterSet.Types
int32
p166
g2
Ntp167
Rp168
(dp169
g14
I00
sg32
I01
sg81
I-1
sg15
I00
sbsg15
I00
sS'minFractionInCalc'
p170
g0
(g85
g2
Ntp171
Rp172
(dp173
g14
I00
sg32
I01
sg81
F1.0000000000000001e-09
sg15
I00
sbsg11
(lp174
S'minAllowedNormalization'
p175
ag170
ag161
ag165
ag148
asg175
g0
(g85
g2
Ntp176
Rp177
(dp178
g14
I00
sg32
I01
sg81
F1.0000000000000001e-09
sg15
I00
sbsg148
g0
(g77
g2
Ntp179
Rp180
(dp181
g14
I00
sg32
I01
sg81
S'Basic2DGenericPFlowPositionCalc'
p182
sg15
I00
sbsbsS'recHitEnergyNorms'
p183
g0
(g65
g20
(lp184
g0
(g67
g2
Ntp185
Rp186
(dp187
g14
I00
sg32
I01
sg15
I00
sS'recHitEnergyNorm'
p188
g0
(g85
g2
Ntp189
Rp190
(dp191
g14
I00
sg32
I01
sg81
F6.0000000000000002e-05
sg15
I00
sbsg11
(lp192
S'detector'
p193
ag188
asg193
g0
(g77
g2
Ntp194
Rp195
(dp196
g14
I00
sg32
I01
sg81
S'PS1'
p197
sg15
I00
sbsbag0
(g67
g2
Ntp198
Rp199
(dp200
g14
I00
sg32
I01
sg15
I00
sg188
g0
(g85
g2
Ntp201
Rp202
(dp203
g14
I00
sg32
I01
sg81
F6.0000000000000002e-05
sg15
I00
sbsg11
(lp204
g193
ag188
asg193
g0
(g77
g2
Ntp205
Rp206
(dp207
g14
I00
sg32
I01
sg81
S'PS2'
p208
sg15
I00
sbsbatp209
Rp210
(dp211
g14
I00
sg32
I01
sg15
I00
sg33
I1
sbsS'stoppingTolerance'
p212
g0
(g85
g2
Ntp213
Rp214
(dp215
g14
I00
sg32
I01
sg81
F1e-08
sg15
I00
sbsg11
(lp216
g148
ag143
ag153
ag183
ag157
ag139
ag212
aS'minFractionToKeep'
p217
aS'excludeOtherSeeds'
p218
asg218
g0
(cFWCore.ParameterSet.Types
bool
p219
g2
Ntp220
Rp221
(dp222
g14
I00
sg32
I01
sg81
I01
sg15
I00
sbsg217
g0
(g85
g2
Ntp223
Rp224
(dp225
g14
I00
sg32
I01
sg81
F9.9999999999999995e-08
sg15
I00
sbsbsg17
S'/cvmfs/cms.cern.ch/slc6_amd64_gcc491/cms/cmssw-patch/CMSSW_7_4_4_patch2/python/RecoParticleFlow/PFClusterProducer/particleFlowClusterPS_cfi.py'
p226
sg128
g0
(g67
g2
Ntp227
Rp228
(dp229
g14
I00
sg32
I01
sg15
I00
sg11
(lp230
sbsg129
g0
(g65
g20
(lp231
tp232
Rp233
(dp234
g14
I00
sg32
I01
sg15
I00
sg33
I1
sbsg16
I79
sg130
g0
(g67
g2
Ntp235
Rp236
(dp237
g14
I00
sg32
I01
sg148
g0
(g77
g2
Ntp238
Rp239
(dp240
g14
I00
sg32
I01
sg81
S'LocalMaximumSeedFinder'
p241
sg15
I00
sbsg15
I00
sS'thresholdsByDetector'
p242
g0
(g65
g20
(lp243
g0
(g67
g2
Ntp244
Rp245
(dp246
g14
I00
sg32
I01
sS'seedingThreshold'
p247
g0
(g85
g2
Ntp248
Rp249
(dp250
g14
I00
sg32
I01
sg81
F0.00012
sg15
I00
sbsg15
I00
sS'seedingThresholdPt'
p251
g0
(g85
g2
Ntp252
Rp253
(dp254
g14
I00
sg32
I01
sg81
F0.0
sg15
I00
sbsg11
(lp255
g247
ag251
ag193
asg193
g0
(g77
g2
Ntp256
Rp257
(dp258
g14
I00
sg32
I01
sg81
g197
sg15
I00
sbsbag0
(g67
g2
Ntp259
Rp260
(dp261
g14
I00
sg32
I01
sg247
g0
(g85
g2
Ntp262
Rp263
(dp264
g14
I00
sg32
I01
sg81
F0.00012
sg15
I00
sbsg15
I00
sg251
g0
(g85
g2
Ntp265
Rp266
(dp267
g14
I00
sg32
I01
sg81
F0.0
sg15
I00
sbsg11
(lp268
g247
ag251
ag193
asg193
g0
(g77
g2
Ntp269
Rp270
(dp271
g14
I00
sg32
I01
sg81
g208
sg15
I00
sbsbatp272
Rp273
(dp274
g14
I00
sg32
I01
sg15
I00
sg33
I1
sbsg11
(lp275
g148
ag242
aS'nNeighbours'
p276
asg276
g0
(g166
g2
Ntp277
Rp278
(dp279
g14
I00
sg32
I01
sg81
I4
sg15
I00
sbsbsg131
g0
(g93
g2
Ntp280
Rp281
(dp282
g14
I00
sg32
I01
sg15
I00
sg97
g111
sg99
g100
sg101
g100
sbsg34
S'particleFlowClusterPS'
p283
sg35
S'PFClusterProducer'
p284
sg127
g0
(g67
g2
Ntp285
Rp286
(dp287
g14
I00
sg32
I01
sg148
g0
(g77
g2
Ntp288
Rp289
(dp290
g14
I00
sg32
I01
sg81
S'Basic2DGenericTopoClusterizer'
p291
sg15
I00
sbsg15
I00
sg242
g0
(g65
g20
(lp292
g0
(g67
g2
Ntp293
Rp294
(dp295
g14
I00
sg32
I01
sg15
I00
sg11
(lp296
g193
aS'gatheringThresholdPt'
p297
aS'gatheringThreshold'
p298
asg193
g0
(g77
g2
Ntp299
Rp300
(dp301
g14
I00
sg32
I01
sg81
g197
sg15
I00
sbsg297
g0
(g85
g2
Ntp302
Rp303
(dp304
g14
I00
sg32
I01
sg81
F0.0
sg15
I00
sbsg298
g0
(g85
g2
Ntp305
Rp306
(dp307
g14
I00
sg32
I01
sg81
F6.0000000000000002e-05
sg15
I00
sbsbag0
(g67
g2
Ntp308
Rp309
(dp310
g14
I00
sg32
I01
sg15
I00
sg11
(lp311
g193
ag297
ag298
asg193
g0
(g77
g2
Ntp312
Rp313
(dp314
g14
I00
sg32
I01
sg81
g208
sg15
I00
sbsg297
g0
(g85
g2
Ntp315
Rp316
(dp317
g14
I00
sg32
I01
sg81
F0.0
sg15
I00
sbsg298
g0
(g85
g2
Ntp318
Rp319
(dp320
g14
I00
sg32
I01
sg81
F6.0000000000000002e-05
sg15
I00
sbsbatp321
Rp322
(dp323
g14
I00
sg32
I01
sg15
I00
sg33
I1
sbsS'useCornerCells'
p324
g0
(g219
g2
Ntp325
Rp326
(dp327
g14
I00
sg32
I01
sg81
I00
sg15
I00
sbsg11
(lp328
g148
ag242
ag324
asbsbasbsg15
I00
sg34
S'pfClusteringPS'
p329
sbag0
(g39
g2
Ntp330
Rp331
(dp332
g14
I00
sg43
g0
(g44
g2
Ntp333
Rp334
(dp335
g48
(lp336
g0
(g57
g2
Ntp337
Rp338
(dp339
g11
(lp340
g62
ag63
asg14
I00
sg15
I00
sg16
I45
sg17
S'/cvmfs/cms.cern.ch/slc6_amd64_gcc491/cms/cmssw-patch/CMSSW_7_4_4_patch2/python/RecoParticleFlow/PFClusterProducer/particleFlowRecHitECAL_cfi.py'
p341
sg62
g0
(g65
g20
(lp342
g0
(g67
g2
Ntp343
Rp344
(dp345
g14
I00
sg32
I01
sg15
I00
sg71
g0
(g65
g20
(lp346
g0
(g67
g2
Ntp347
Rp348
(dp349
g14
I00
sg32
I01
sg76
g0
(g77
g2
Ntp350
Rp351
(dp352
g14
I00
sg32
I01
sg81
g82
sg15
I00
sbsg11
(lp353
g84
ag76
asg84
g0
(g85
g2
Ntp354
Rp355
(dp356
g14
I00
sg32
I01
sg81
F0.080000000000000002
sg15
I00
sbsg15
I00
sbag0
(g67
g2
Ntp357
Rp358
(dp359
g14
I00
sg32
I01
sg15
I00
sg76
g0
(g77
g2
Ntp360
Rp361
(dp362
g14
I00
sg32
I01
sg81
S'PFRecHitQTestECAL'
p363
sg15
I00
sbsg11
(lp364
S'skipTTRecoveredHits'
p365
aS'cleaningThreshold'
p366
aS'timingCleaning'
p367
ag76
aS'topologicalCleaning'
p368
asg366
g0
(g85
g2
Ntp369
Rp370
(dp371
g14
I00
sg32
I01
sg81
F2.0
sg15
I00
sbsg365
g0
(g219
g2
Ntp372
Rp373
(dp374
g14
I00
sg32
I01
sg81
I01
sg15
I00
sbsg368
g0
(g219
g2
Ntp375
Rp376
(dp377
g14
I00
sg32
I01
sg81
I01
sg15
I00
sbsg367
g0
(g219
g2
Ntp378
Rp379
(dp380
g14
I00
sg32
I01
sg81
I01
sg15
I00
sbsbatp381
Rp382
(dp383
g14
I00
sg32
I01
sg15
I00
sg33
I1
sbsg92
g0
(g93
g2
Ntp384
Rp385
(dp386
g14
I00
sg32
I01
sg15
I00
sg97
S'ecalRecHit'
p387
sg99
g100
sg101
S'EcalRecHitsEB'
p388
sbsg11
(lp389
g92
ag76
ag71
asg76
g0
(g77
g2
Ntp390
Rp391
(dp392
g14
I00
sg32
I01
sg81
S'PFEBRecHitCreator'
p393
sg15
I00
sbsbag0
(g67
g2
Ntp394
Rp395
(dp396
g14
I00
sg32
I01
sg15
I00
sg71
g0
(g65
g20
(lp397
g0
(g67
g2
Ntp398
Rp399
(dp400
g14
I00
sg32
I01
sg76
g0
(g77
g2
Ntp401
Rp402
(dp403
g14
I00
sg32
I01
sg81
g82
sg15
I00
sbsg11
(lp404
g84
ag76
asg84
g0
(g85
g2
Ntp405
Rp406
(dp407
g14
I00
sg32
I01
sg81
F0.29999999999999999
sg15
I00
sbsg15
I00
sbag0
(g67
g2
Ntp408
Rp409
(dp410
g14
I00
sg32
I01
sg15
I00
sg76
g0
(g77
g2
Ntp411
Rp412
(dp413
g14
I00
sg32
I01
sg81
g363
sg15
I00
sbsg11
(lp414
g365
ag366
ag367
ag76
ag368
asg366
g0
(g85
g2
Ntp415
Rp416
(dp417
g14
I00
sg32
I01
sg81
F2.0
sg15
I00
sbsg365
g0
(g219
g2
Ntp418
Rp419
(dp420
g14
I00
sg32
I01
sg81
I01
sg15
I00
sbsg368
g0
(g219
g2
Ntp421
Rp422
(dp423
g14
I00
sg32
I01
sg81
I01
sg15
I00
sbsg367
g0
(g219
g2
Ntp424
Rp425
(dp426
g14
I00
sg32
I01
sg81
I01
sg15
I00
sbsbatp427
Rp428
(dp429
g14
I00
sg32
I01
sg15
I00
sg33
I1
sbsg92
g0
(g93
g2
Ntp430
Rp431
(dp432
g14
I00
sg32
I01
sg15
I00
sg97
g387
sg99
g100
sg101
S'EcalRecHitsEE'
p433
sbsg11
(lp434
g92
ag76
ag71
asg76
g0
(g77
g2
Ntp435
Rp436
(dp437
g14
I00
sg32
I01
sg81
S'PFEERecHitCreator'
p438
sg15
I00
sbsbatp439
Rp440
(dp441
g14
I00
sg32
I01
sg15
I00
sg33
I1
sbsg34
S'particleFlowRecHitECAL'
p442
sg63
g0
(g67
g2
Ntp443
Rp444
(dp445
g14
I00
sg32
I01
sg15
I00
sg11
(lp446
S'barrel'
p447
ag76
aS'endcap'
p448
asg447
g0
(g67
g2
Ntp449
Rp450
(dp451
g14
I00
sg32
I01
sg15
I00
sg11
(lp452
sbsg448
g0
(g67
g2
Ntp453
Rp454
(dp455
g14
I00
sg32
I01
sg15
I00
sg11
(lp456
sbsg76
g0
(g77
g2
Ntp457
Rp458
(dp459
g14
I00
sg32
I01
sg81
S'PFRecHitECALNavigator'
p460
sg15
I00
sbsbsg35
g120
sbag0
(g57
g2
Ntp461
Rp462
(dp463
g11
(lp464
g125
ag126
ag127
ag128
ag129
ag130
ag131
asg14
I00
sg126
g0
(g67
g2
Ntp465
Rp466
(dp467
g14
I00
sg32
I01
sg148
g0
(g77
g2
Ntp468
Rp469
(dp470
g14
I00
sg32
I01
sg81
S'ECAL2DPositionCalcWithDepthCorr'
p471
sg15
I00
sbsg15
I00
sg170
g0
(g85
g2
Ntp472
Rp473
(dp474
g14
I00
sg32
I01
sg81
F0.0
sg15
I00
sbsS'T0_ES'
p475
g0
(g85
g2
Ntp476
Rp477
(dp478
g14
I00
sg32
I01
sg81
F1.2
sg15
I00
sbsS'W0'
p479
g0
(g85
g2
Ntp480
Rp481
(dp482
g14
I00
sg32
I01
sg81
F4.2000000000000002
sg15
I00
sbsg11
(lp483
g148
ag170
ag475
ag479
ag175
aS'X0'
p484
aS'T0_EB'
p485
aS'T0_EE'
p486
asg175
g0
(g85
g2
Ntp487
Rp488
(dp489
g14
I00
sg32
I01
sg81
F0.0
sg15
I00
sbsg484
g0
(g85
g2
Ntp490
Rp491
(dp492
g14
I00
sg32
I01
sg81
F0.89000000000000001
sg15
I00
sbsg485
g0
(g85
g2
Ntp493
Rp494
(dp495
g14
I00
sg32
I01
sg81
F7.4000000000000004
sg15
I00
sbsg486
g0
(g85
g2
Ntp496
Rp497
(dp498
g14
I00
sg32
I01
sg81
F3.1000000000000001
sg15
I00
sbsbsg15
I00
sg125
g0
(g67
g2
Ntp499
Rp500
(dp501
g14
I00
sg32
I01
sg143
g0
(g144
g2
Ntp502
Rp503
(dp504
g14
I00
sg32
I01
sg81
I50
sg15
I00
sbsg148
g0
(g77
g2
Ntp505
Rp506
(dp507
g14
I00
sg32
I01
sg81
g152
sg15
I00
sbsg15
I00
sS'allCellsPositionCalc'
p508
g0
(g67
g2
Ntp509
Rp510
(dp511
g14
I00
sg32
I01
sg161
g0
(g85
g2
Ntp512
Rp513
(dp514
g14
I00
sg32
I01
sg81
F0.080000000000000002
sg15
I00
sbsg148
g0
(g77
g2
Ntp515
Rp516
(dp517
g14
I00
sg32
I01
sg81
g182
sg15
I00
sbsg15
I00
sS'timeResolutionCalcBarrel'
p518
g0
(g67
g2
Ntp519
Rp520
(dp521
g14
I00
sg32
I01
sS'noiseTermLowE'
p522
g0
(g85
g2
Ntp523
Rp524
(dp525
g14
I00
sg32
I01
sg81
F1.3188299999994002
sg15
I00
sbsg15
I00
sS'constantTerm'
p526
g0
(g85
g2
Ntp527
Rp528
(dp529
g14
I00
sg32
I01
sg81
F0.42819200000000002
sg15
I00
sbsS'constantTermLowE'
p530
g0
(g85
g2
Ntp531
Rp532
(dp533
g14
I00
sg32
I01
sg81
F0.0
sg15
I00
sbsS'corrTermLowE'
p534
g0
(g85
g2
Ntp535
Rp536
(dp537
g14
I00
sg32
I01
sg81
F0.051087100000000003
sg15
I00
sbsS'noiseTerm'
p538
g0
(g85
g2
Ntp539
Rp540
(dp541
g14
I00
sg32
I01
sg81
F1.1088899999982
sg15
I00
sbsS'threshLowE'
p542
g0
(g85
g2
Ntp543
Rp544
(dp545
g14
I00
sg32
I01
sg81
F0.5
sg15
I00
sbsg11
(lp546
g530
ag522
ag526
ag538
ag534
ag542
aS'threshHighE'
p547
asg547
g0
(g85
g2
Ntp548
Rp549
(dp550
g14
I00
sg32
I01
sg81
F5.0
sg15
I00
sbsbsg170
g0
(g85
g2
Ntp551
Rp552
(dp553
g14
I00
sg32
I01
sg81
F1.0000000000000001e-09
sg15
I00
sbsS'timeResolutionCalcEndcap'
p554
g0
(g67
g2
Ntp555
Rp556
(dp557
g14
I00
sg32
I01
sg522
g0
(g85
g2
Ntp558
Rp559
(dp560
g14
I00
sg32
I01
sg81
F6.9268300000060004
sg15
I00
sbsg15
I00
sg526
g0
(g85
g2
Ntp561
Rp562
(dp563
g14
I00
sg32
I01
sg81
F0.0
sg15
I00
sbsg530
g0
(g85
g2
Ntp564
Rp565
(dp566
g14
I00
sg32
I01
sg81
F0.0
sg15
I00
sbsg534
g0
(g85
g2
Ntp567
Rp568
(dp569
g14
I00
sg32
I01
sg81
F0.0
sg15
I00
sbsg538
g0
(g85
g2
Ntp570
Rp571
(dp572
g14
I00
sg32
I01
sg81
F5.7248999999940002
sg15
I00
sbsg542
g0
(g85
g2
Ntp573
Rp574
(dp575
g14
I00
sg32
I01
sg81
F1.0
sg15
I00
sbsg11
(lp576
g530
ag522
ag526
ag538
ag534
ag542
ag547
asg547
g0
(g85
g2
Ntp577
Rp578
(dp579
g14
I00
sg32
I01
sg81
F10.0
sg15
I00
sbsbsg11
(lp580
g148
ag170
ag161
ag165
ag518
ag554
ag175
asg175
g0
(g85
g2
Ntp581
Rp582
(dp583
g14
I00
sg32
I01
sg81
F1.0000000000000001e-09
sg15
I00
sbsg165
g0
(g166
g2
Ntp584
Rp585
(dp586
g14
I00
sg32
I01
sg81
I-1
sg15
I00
sbsbsg153
g0
(g85
g2
Ntp587
Rp588
(dp589
g14
I00
sg32
I01
sg81
F1.5
sg15
I00
sbsg183
g0
(g65
g20
(lp590
g0
(g67
g2
Ntp591
Rp592
(dp593
g14
I00
sg32
I01
sg15
I00
sg188
g0
(g85
g2
Ntp594
Rp595
(dp596
g14
I00
sg32
I01
sg81
F0.080000000000000002
sg15
I00
sbsg11
(lp597
g193
ag188
asg193
g0
(g77
g2
Ntp598
Rp599
(dp600
g14
I00
sg32
I01
sg81
S'ECAL_BARREL'
p601
sg15
I00
sbsbag0
(g67
g2
Ntp602
Rp603
(dp604
g14
I00
sg32
I01
sg15
I00
sg188
g0
(g85
g2
Ntp605
Rp606
(dp607
g14
I00
sg32
I01
sg81
F0.29999999999999999
sg15
I00
sbsg11
(lp608
g193
ag188
asg193
g0
(g77
g2
Ntp609
Rp610
(dp611
g14
I00
sg32
I01
sg81
S'ECAL_ENDCAP'
p612
sg15
I00
sbsbatp613
Rp614
(dp615
g14
I00
sg32
I01
sg15
I00
sg33
I1
sbsg157
g0
(g67
g2
Ntp616
Rp617
(dp618
g14
I00
sg32
I01
sg161
g0
(g85
g2
Ntp619
Rp620
(dp621
g14
I00
sg32
I01
sg81
F0.080000000000000002
sg15
I00
sbsg148
g0
(g77
g2
Ntp622
Rp623
(dp624
g14
I00
sg32
I01
sg81
g182
sg15
I00
sbsg15
I00
sg518
g0
(g67
g2
Ntp625
Rp626
(dp627
g14
I00
sg32
I01
sg522
g0
(g85
g2
Ntp628
Rp629
(dp630
g14
I00
sg32
I01
sg81
F1.3188299999994002
sg15
I00
sbsg15
I00
sg526
g0
(g85
g2
Ntp631
Rp632
(dp633
g14
I00
sg32
I01
sg81
F0.42819200000000002
sg15
I00
sbsg530
g0
(g85
g2
Ntp634
Rp635
(dp636
g14
I00
sg32
I01
sg81
F0.0
sg15
I00
sbsg534
g0
(g85
g2
Ntp637
Rp638
(dp639
g14
I00
sg32
I01
sg81
F0.051087100000000003
sg15
I00
sbsg538
g0
(g85
g2
Ntp640
Rp641
(dp642
g14
I00
sg32
I01
sg81
F1.1088899999982
sg15
I00
sbsg542
g0
(g85
g2
Ntp643
Rp644
(dp645
g14
I00
sg32
I01
sg81
F0.5
sg15
I00
sbsg11
(lp646
g530
ag522
ag526
ag538
ag534
ag542
ag547
asg547
g0
(g85
g2
Ntp647
Rp648
(dp649
g14
I00
sg32
I01
sg81
F5.0
sg15
I00
sbsbsg170
g0
(g85
g2
Ntp650
Rp651
(dp652
g14
I00
sg32
I01
sg81
F1.0000000000000001e-09
sg15
I00
sbsg554
g0
(g67
g2
Ntp653
Rp654
(dp655
g14
I00
sg32
I01
sg522
g0
(g85
g2
Ntp656
Rp657
(dp658
g14
I00
sg32
I01
sg81
F6.9268300000060004
sg15
I00
sbsg15
I00
sg526
g0
(g85
g2
Ntp659
Rp660
(dp661
g14
I00
sg32
I01
sg81
F0.0
sg15
I00
sbsg530
g0
(g85
g2
Ntp662
Rp663
(dp664
g14
I00
sg32
I01
sg81
F0.0
sg15
I00
sbsg534
g0
(g85
g2
Ntp665
Rp666
(dp667
g14
I00
sg32
I01
sg81
F0.0
sg15
I00
sbsg538
g0
(g85
g2
Ntp668
Rp669
(dp670
g14
I00
sg32
I01
sg81
F5.7248999999940002
sg15
I00
sbsg542
g0
(g85
g2
Ntp671
Rp672
(dp673
g14
I00
sg32
I01
sg81
F1.0
sg15
I00
sbsg11
(lp674
g530
ag522
ag526
ag538
ag534
ag542
ag547
asg547
g0
(g85
g2
Ntp675
Rp676
(dp677
g14
I00
sg32
I01
sg81
F10.0
sg15
I00
sbsbsg11
(lp678
g148
ag170
ag161
ag165
ag518
ag554
ag175
asg175
g0
(g85
g2
Ntp679
Rp680
(dp681
g14
I00
sg32
I01
sg81
F1.0000000000000001e-09
sg15
I00
sbsg165
g0
(g166
g2
Ntp682
Rp683
(dp684
g14
I00
sg32
I01
sg81
I9
sg15
I00
sbsbsg139
g0
(g85
g2
Ntp685
Rp686
(dp687
g14
I00
sg32
I01
sg81
F9.9999999999999995e-21
sg15
I00
sbsg212
g0
(g85
g2
Ntp688
Rp689
(dp690
g14
I00
sg32
I01
sg81
F1e-08
sg15
I00
sbsg11
(lp691
g148
ag143
ag139
ag508
ag153
ag157
ag183
ag212
aS'positionCalcForConvergence'
p692
ag217
ag218
asg692
g466
sg218
g0
(g219
g2
Ntp693
Rp694
(dp695
g14
I00
sg32
I01
sg81
I01
sg15
I00
sbsg217
g0
(g85
g2
Ntp696
Rp697
(dp698
g14
I00
sg32
I01
sg81
F9.9999999999999995e-08
sg15
I00
sbsbsg17
S'/cvmfs/cms.cern.ch/slc6_amd64_gcc491/cms/cmssw-patch/CMSSW_7_4_4_patch2/python/RecoParticleFlow/PFClusterProducer/particleFlowClusterECALUncorrected_cfi.py'
p699
sg128
g0
(g67
g2
Ntp700
Rp701
(dp702
g14
I00
sg32
I01
sg15
I00
sg11
(lp703
sbsg129
g0
(g65
g20
(lp704
g0
(g67
g2
Ntp705
Rp706
(dp707
g14
I00
sg32
I01
sg148
g0
(g77
g2
Ntp708
Rp709
(dp710
g14
I00
sg32
I01
sg81
S'SpikeAndDoubleSpikeCleaner'
p711
sg15
I00
sbsg15
I00
sS'cleaningByDetector'
p712
g0
(g65
g20
(lp713
g0
(g67
g2
Ntp714
Rp715
(dp716
g14
I00
sg32
I01
sS'minS4S1_a'
p717
g0
(g85
g2
Ntp718
Rp719
(dp720
g14
I00
sg32
I01
sg81
F0.040000000000000001
sg15
I00
sbsg15
I00
sS'minS4S1_b'
p721
g0
(g85
g2
Ntp722
Rp723
(dp724
g14
I00
sg32
I01
sg81
F-0.024
sg15
I00
sbsS'fractionThresholdModifier'
p725
g0
(g85
g2
Ntp726
Rp727
(dp728
g14
I00
sg32
I01
sg81
F3.0
sg15
I00
sbsS'energyThresholdModifier'
p729
g0
(g85
g2
Ntp730
Rp731
(dp732
g14
I00
sg32
I01
sg81
F2.0
sg15
I00
sbsS'singleSpikeThresh'
p733
g0
(g85
g2
Ntp734
Rp735
(dp736
g14
I00
sg32
I01
sg81
F4.0
sg15
I00
sbsS'doubleSpikeThresh'
p737
g0
(g85
g2
Ntp738
Rp739
(dp740
g14
I00
sg32
I01
sg81
F10.0
sg15
I00
sbsg11
(lp741
g717
ag721
ag725
ag729
ag737
ag733
aS'doubleSpikeS6S2'
p742
ag193
asg742
g0
(g85
g2
Ntp743
Rp744
(dp745
g14
I00
sg32
I01
sg81
F0.040000000000000001
sg15
I00
sbsg193
g0
(g77
g2
Ntp746
Rp747
(dp748
g14
I00
sg32
I01
sg81
g601
sg15
I00
sbsbag0
(g67
g2
Ntp749
Rp750
(dp751
g14
I00
sg32
I01
sg717
g0
(g85
g2
Ntp752
Rp753
(dp754
g14
I00
sg32
I01
sg81
F0.02
sg15
I00
sbsg15
I00
sg721
g0
(g85
g2
Ntp755
Rp756
(dp757
g14
I00
sg32
I01
sg81
F-0.012500000000000001
sg15
I00
sbsg725
g0
(g85
g2
Ntp758
Rp759
(dp760
g14
I00
sg32
I01
sg81
F3.0
sg15
I00
sbsg729
g0
(g85
g2
Ntp761
Rp762
(dp763
g14
I00
sg32
I01
sg81
F2.0
sg15
I00
sbsg733
g0
(g85
g2
Ntp764
Rp765
(dp766
g14
I00
sg32
I01
sg81
F15.0
sg15
I00
sbsg737
g0
(g85
g2
Ntp767
Rp768
(dp769
g14
I00
sg32
I01
sg81
F1000000000.0
sg15
I00
sbsg11
(lp770
g717
ag721
ag725
ag729
ag737
ag733
ag742
ag193
asg742
g0
(g85
g2
Ntp771
Rp772
(dp773
g14
I00
sg32
I01
sg81
F-1.0
sg15
I00
sbsg193
g0
(g77
g2
Ntp774
Rp775
(dp776
g14
I00
sg32
I01
sg81
g612
sg15
I00
sbsbatp777
Rp778
(dp779
g14
I00
sg32
I01
sg15
I00
sg33
I1
sbsg11
(lp780
g148
ag712
asbatp781
Rp782
(dp783
g14
I00
sg32
I01
sg15
I00
sg33
I1
sbsg16
I125
sg130
g0
(g67
g2
Ntp784
Rp785
(dp786
g14
I00
sg32
I01
sg148
g0
(g77
g2
Ntp787
Rp788
(dp789
g14
I00
sg32
I01
sg81
g241
sg15
I00
sbsg15
I00
sg242
g0
(g65
g20
(lp790
g0
(g67
g2
Ntp791
Rp792
(dp793
g14
I00
sg32
I01
sg247
g0
(g85
g2
Ntp794
Rp795
(dp796
g14
I00
sg32
I01
sg81
F0.59999999999999998
sg15
I00
sbsg15
I00
sg251
g0
(g85
g2
Ntp797
Rp798
(dp799
g14
I00
sg32
I01
sg81
F0.14999999999999999
sg15
I00
sbsg11
(lp800
g247
ag251
ag193
asg193
g0
(g77
g2
Ntp801
Rp802
(dp803
g14
I00
sg32
I01
sg81
g612
sg15
I00
sbsbag0
(g67
g2
Ntp804
Rp805
(dp806
g14
I00
sg32
I01
sg247
g0
(g85
g2
Ntp807
Rp808
(dp809
g14
I00
sg32
I01
sg81
F0.23000000000000001
sg15
I00
sbsg15
I00
sg251
g0
(g85
g2
Ntp810
Rp811
(dp812
g14
I00
sg32
I01
sg81
F0.0
sg15
I00
sbsg11
(lp813
g247
ag251
ag193
asg193
g0
(g77
g2
Ntp814
Rp815
(dp816
g14
I00
sg32
I01
sg81
g601
sg15
I00
sbsbatp817
Rp818
(dp819
g14
I00
sg32
I01
sg15
I00
sg33
I1
sbsg11
(lp820
g148
ag242
ag276
asg276
g0
(g166
g2
Ntp821
Rp822
(dp823
g14
I00
sg32
I01
sg81
I8
sg15
I00
sbsbsg131
g0
(g93
g2
Ntp824
Rp825
(dp826
g14
I00
sg32
I01
sg15
I00
sg97
g442
sg99
g100
sg101
g100
sbsg34
S'particleFlowClusterECALUncorrected'
p827
sg35
g284
sg127
g0
(g67
g2
Ntp828
Rp829
(dp830
g14
I00
sg32
I01
sg148
g0
(g77
g2
Ntp831
Rp832
(dp833
g14
I00
sg32
I01
sg81
g291
sg15
I00
sbsg15
I00
sg242
g0
(g65
g20
(lp834
g0
(g67
g2
Ntp835
Rp836
(dp837
g14
I00
sg32
I01
sg15
I00
sg11
(lp838
g193
ag297
ag298
asg193
g0
(g77
g2
Ntp839
Rp840
(dp841
g14
I00
sg32
I01
sg81
g601
sg15
I00
sbsg297
g0
(g85
g2
Ntp842
Rp843
(dp844
g14
I00
sg32
I01
sg81
F0.0
sg15
I00
sbsg298
g0
(g85
g2
Ntp845
Rp846
(dp847
g14
I00
sg32
I01
sg81
F0.080000000000000002
sg15
I00
sbsbag0
(g67
g2
Ntp848
Rp849
(dp850
g14
I00
sg32
I01
sg15
I00
sg11
(lp851
g193
ag297
ag298
asg193
g0
(g77
g2
Ntp852
Rp853
(dp854
g14
I00
sg32
I01
sg81
g612
sg15
I00
sbsg297
g0
(g85
g2
Ntp855
Rp856
(dp857
g14
I00
sg32
I01
sg81
F0.0
sg15
I00
sbsg298
g0
(g85
g2
Ntp858
Rp859
(dp860
g14
I00
sg32
I01
sg81
F0.29999999999999999
sg15
I00
sbsbatp861
Rp862
(dp863
g14
I00
sg32
I01
sg15
I00
sg33
I1
sbsg324
g0
(g219
g2
Ntp864
Rp865
(dp866
g14
I00
sg32
I01
sg81
I01
sg15
I00
sbsg11
(lp867
g148
ag242
ag324
asbsbag0
(g57
g2
Ntp868
Rp869
(dp870
g11
(lp871
S'minimumPSEnergy'
p872
aS'inputPS'
p873
ag128
aS'inputECAL'
p874
asg14
I00
sg15
I00
sg16
I20
sg17
S'/cvmfs/cms.cern.ch/slc6_amd64_gcc491/cms/cmssw-patch/CMSSW_7_4_4_patch2/python/RecoParticleFlow/PFClusterProducer/particleFlowClusterECAL_cfi.py'
p875
sg128
g0
(g67
g2
Ntp876
Rp877
(dp878
g14
I00
sg32
I01
sS'applyCrackCorrections'
p879
g0
(g219
g2
Ntp880
Rp881
(dp882
g14
I00
sg32
I01
sg81
I00
sg15
I00
sbsg148
g0
(g77
g2
Ntp883
Rp884
(dp885
g14
I00
sg32
I01
sg81
S'PFClusterEMEnergyCorrector'
p886
sg15
I00
sbsg15
I00
sS'recHitsEELabel'
p887
g0
(g93
g2
Ntp888
Rp889
(dp890
g14
I00
sg32
I01
sg15
I00
sg97
g387
sg99
g100
sg101
g433
sbsS'autoDetectBunchSpacing'
p891
g0
(g219
g2
Ntp892
Rp893
(dp894
g14
I00
sg32
I01
sg81
I01
sg15
I00
sbsS'recHitsEBLabel'
p895
g0
(g93
g2
Ntp896
Rp897
(dp898
g14
I00
sg32
I01
sg15
I00
sg97
g387
sg99
g100
sg101
g388
sbsS'applyMVACorrections'
p899
g0
(g219
g2
Ntp900
Rp901
(dp902
g14
I00
sg32
I01
sg81
I01
sg15
I00
sbsg11
(lp903
g879
ag148
ag887
ag891
ag899
ag895
asbsg872
g0
(g85
g2
Ntp904
Rp905
(dp906
g14
I00
sg32
I01
sg81
F0.0
sg15
I00
sbsg34
S'particleFlowClusterECAL'
p907
sg874
g0
(g93
g2
Ntp908
Rp909
(dp910
g14
I00
sg32
I01
sg15
I00
sg97
g827
sg99
g100
sg101
g100
sbsg873
g0
(g93
g2
Ntp911
Rp912
(dp913
g14
I00
sg32
I01
sg15
I00
sg97
g283
sg99
g100
sg101
g100
sbsg35
S'CorrectedECALPFClusterProducer'
p914
sbasbsg15
I00
sg34
S'pfClusteringECAL'
p915
sbag0
(g39
g2
Ntp916
Rp917
(dp918
g14
I00
sg43
g0
(g44
g2
Ntp919
Rp920
(dp921
g48
(lp922
g0
(g57
g2
Ntp923
Rp924
(dp925
g11
(lp926
g62
ag63
asg14
I00
sg15
I00
sg16
I23
sg17
S'/cvmfs/cms.cern.ch/slc6_amd64_gcc491/cms/cmssw-patch/CMSSW_7_4_4_patch2/python/RecoParticleFlow/PFClusterProducer/particleFlowRecHitHBHE_cfi.py'
p927
sg62
g0
(g65
g20
(lp928
g0
(g67
g2
Ntp929
Rp930
(dp931
g14
I00
sg32
I01
sg15
I00
sg71
g0
(g65
g20
(lp932
g0
(g67
g2
Ntp933
Rp934
(dp935
g14
I00
sg32
I01
sg76
g0
(g77
g2
Ntp936
Rp937
(dp938
g14
I00
sg32
I01
sg81
g82
sg15
I00
sbsg11
(lp939
g84
ag76
asg84
g0
(g85
g2
Ntp940
Rp941
(dp942
g14
I00
sg32
I01
sg81
F0.80000000000000004
sg15
I00
sbsg15
I00
sbag0
(g67
g2
Ntp943
Rp944
(dp945
g14
I00
sg32
I01
sg15
I00
sS'maxSeverities'
p946
g0
(cFWCore.ParameterSet.Types
vint32
p947
g20
(lp948
I11
atp949
Rp950
(dp951
g14
I00
sg32
I01
sg15
I00
sbsS'cleaningThresholds'
p952
g0
(cFWCore.ParameterSet.Types
vdouble
p953
g20
(lp954
F0.0
atp955
Rp956
(dp957
g14
I00
sg32
I01
sg15
I00
sbsS'flags'
p958
g0
(g19
g20
(lp959
S'Standard'
p960
atp961
Rp962
(dp963
g14
I00
sg32
I01
sg15
I00
sg33
I1
sbsg11
(lp964
g946
ag952
ag958
ag76
asg76
g0
(g77
g2
Ntp965
Rp966
(dp967
g14
I00
sg32
I01
sg81
S'PFRecHitQTestHCALChannel'
p968
sg15
I00
sbsbatp969
Rp970
(dp971
g14
I00
sg32
I01
sg15
I00
sg33
I1
sbsg92
g0
(g93
g2
Ntp972
Rp973
(dp974
g14
I00
sg32
I01
sg15
I00
sg97
S'hbhereco'
p975
sg99
g100
sg101
g100
sbsg11
(lp976
g92
ag76
ag71
asg76
g0
(g77
g2
Ntp977
Rp978
(dp979
g14
I00
sg32
I01
sg81
S'PFHBHERecHitCreator'
p980
sg15
I00
sbsbatp981
Rp982
(dp983
g14
I00
sg32
I01
sg15
I00
sg33
I1
sbsg34
S'particleFlowRecHitHBHE'
p984
sg63
g0
(g67
g2
Ntp985
Rp986
(dp987
g14
I00
sg32
I01
sS'timeResolutionCalc'
p988
g0
(g67
g2
Ntp989
Rp990
(dp991
g14
I00
sg32
I01
sg522
g0
(g85
g2
Ntp992
Rp993
(dp994
g14
I00
sg32
I01
sg81
F0.0
sg15
I00
sbsg15
I00
sg526
g0
(g85
g2
Ntp995
Rp996
(dp997
g14
I00
sg32
I01
sg81
F1.9199999999999999
sg15
I00
sbsg530
g0
(g85
g2
Ntp998
Rp999
(dp1000
g14
I00
sg32
I01
sg81
F6.0
sg15
I00
sbsg534
g0
(g85
g2
Ntp1001
Rp1002
(dp1003
g14
I00
sg32
I01
sg81
F0.0
sg15
I00
sbsg538
g0
(g85
g2
Ntp1004
Rp1005
(dp1006
g14
I00
sg32
I01
sg81
F8.6400000000000006
sg15
I00
sbsg542
g0
(g85
g2
Ntp1007
Rp1008
(dp1009
g14
I00
sg32
I01
sg81
F2.0
sg15
I00
sbsg11
(lp1010
g530
ag522
ag526
ag538
ag534
ag542
ag547
asg547
g0
(g85
g2
Ntp1011
Rp1012
(dp1013
g14
I00
sg32
I01
sg81
F8.0
sg15
I00
sbsbsg15
I00
sg11
(lp1014
S'sigmaCut'
p1015
ag988
ag76
asg1015
g0
(g85
g2
Ntp1016
Rp1017
(dp1018
g14
I00
sg32
I01
sg81
F4.0
sg15
I00
sbsg76
g0
(g77
g2
Ntp1019
Rp1020
(dp1021
g14
I00
sg32
I01
sg81
S'PFRecHitHCALNavigator'
p1022
sg15
I00
sbsbsg35
g120
sbag0
(g57
g2
Ntp1023
Rp1024
(dp1025
g11
(lp1026
g62
ag63
asg14
I00
sg15
I00
sg16
I40
sg17
S'/cvmfs/cms.cern.ch/slc6_amd64_gcc491/cms/cmssw-patch/CMSSW_7_4_4_patch2/python/RecoParticleFlow/PFClusterProducer/particleFlowRecHitHF_cfi.py'
p1027
sg62
g0
(g65
g20
(lp1028
g0
(g67
g2
Ntp1029
Rp1030
(dp1031
g14
I00
sg32
I01
sS'LongFibre_Cut'
p1032
g0
(g85
g2
Ntp1033
Rp1034
(dp1035
g14
I00
sg32
I01
sg81
F120.0
sg15
I00
sbsg15
I00
sg71
g0
(g65
g20
(lp1036
g0
(g67
g2
Ntp1037
Rp1038
(dp1039
g14
I00
sg32
I01
sg15
I00
sg946
g0
(g947
g20
(lp1040
I11
aI9
aI9
atp1041
Rp1042
(dp1043
g14
I00
sg32
I01
sg15
I00
sbsg952
g0
(g953
g20
(lp1044
F0.0
aF120.0
aF60.0
atp1045
Rp1046
(dp1047
g14
I00
sg32
I01
sg15
I00
sbsg958
g0
(g19
g20
(lp1048
g960
aS'HFLong'
p1049
aS'HFShort'
p1050
atp1051
Rp1052
(dp1053
g14
I00
sg32
I01
sg15
I00
sg33
I1
sbsg11
(lp1054
g946
ag952
ag958
ag76
asg76
g0
(g77
g2
Ntp1055
Rp1056
(dp1057
g14
I00
sg32
I01
sg81
g968
sg15
I00
sbsbag0
(g67
g2
Ntp1058
Rp1059
(dp1060
g14
I00
sg32
I01
sg15
I00
sg11
(lp1061
g76
aS'cuts'
p1062
asg1062
g0
(g65
g20
(lp1063
g0
(g67
g2
Ntp1064
Rp1065
(dp1066
g14
I00
sg32
I01
sg15
I00
sS'depth'
p1067
g0
(g166
g2
Ntp1068
Rp1069
(dp1070
g14
I00
sg32
I01
sg81
I1
sg15
I00
sbsg11
(lp1071
g84
ag1067
asg84
g0
(g85
g2
Ntp1072
Rp1073
(dp1074
g14
I00
sg32
I01
sg81
F1.2
sg15
I00
sbsbag0
(g67
g2
Ntp1075
Rp1076
(dp1077
g14
I00
sg32
I01
sg15
I00
sg1067
g0
(g166
g2
Ntp1078
Rp1079
(dp1080
g14
I00
sg32
I01
sg81
I2
sg15
I00
sbsg11
(lp1081
g84
ag1067
asg84
g0
(g85
g2
Ntp1082
Rp1083
(dp1084
g14
I00
sg32
I01
sg81
F1.8
sg15
I00
sbsbatp1085
Rp1086
(dp1087
g14
I00
sg32
I01
sg15
I00
sg33
I1
sbsg76
g0
(g77
g2
Ntp1088
Rp1089
(dp1090
g14
I00
sg32
I01
sg81
S'PFRecHitQTestHCALThresholdVsDepth'
p1091
sg15
I00
sbsbatp1092
Rp1093
(dp1094
g14
I00
sg32
I01
sg15
I00
sg33
I1
sbsg92
g0
(g93
g2
Ntp1095
Rp1096
(dp1097
g14
I00
sg32
I01
sg15
I00
sg97
S'hfreco'
p1098
sg99
g100
sg101
g100
sbsS'LongFibre_Fraction'
p1099
g0
(g85
g2
Ntp1100
Rp1101
(dp1102
g14
I00
sg32
I01
sg81
F0.10000000000000001
sg15
I00
sbsS'HADDepthCorrection'
p1103
g0
(g85
g2
Ntp1104
Rp1105
(dp1106
g14
I00
sg32
I01
sg81
F25.0
sg15
I00
sbsg76
g0
(g77
g2
Ntp1107
Rp1108
(dp1109
g14
I00
sg32
I01
sg81
S'PFHFRecHitCreator'
p1110
sg15
I00
sbsS'EMDepthCorrection'
p1111
g0
(g85
g2
Ntp1112
Rp1113
(dp1114
g14
I00
sg32
I01
sg81
F22.0
sg15
I00
sbsS'thresh_HF'
p1115
g0
(g85
g2
Ntp1116
Rp1117
(dp1118
g14
I00
sg32
I01
sg81
F0.40000000000000002
sg15
I00
sbsg11
(lp1119
g1103
ag92
ag1032
aS'ShortFibre_Cut'
p1120
ag71
ag1099
ag1111
ag1115
aS'ShortFibre_Fraction'
p1121
aS'HFCalib29'
p1122
ag76
asg1121
g0
(g85
g2
Ntp1123
Rp1124
(dp1125
g14
I00
sg32
I01
sg81
F0.01
sg15
I00
sbsg1122
g0
(g85
g2
Ntp1126
Rp1127
(dp1128
g14
I00
sg32
I01
sg81
F1.0700000000000001
sg15
I00
sbsg1120
g0
(g85
g2
Ntp1129
Rp1130
(dp1131
g14
I00
sg32
I01
sg81
F60.0
sg15
I00
sbsbatp1132
Rp1133
(dp1134
g14
I00
sg32
I01
sg15
I00
sg33
I1
sbsg34
S'particleFlowRecHitHF'
p1135
sg63
g0
(g67
g2
Ntp1136
Rp1137
(dp1138
g14
I00
sg32
I01
sg15
I00
sg11
(lp1139
g447
ag76
ag448
asg447
g0
(g67
g2
Ntp1140
Rp1141
(dp1142
g14
I00
sg32
I01
sg15
I00
sg11
(lp1143
sbsg448
g0
(g67
g2
Ntp1144
Rp1145
(dp1146
g14
I00
sg32
I01
sg15
I00
sg11
(lp1147
sbsg76
g0
(g77
g2
Ntp1148
Rp1149
(dp1150
g14
I00
sg32
I01
sg81
g1022
sg15
I00
sbsbsg35
g120
sbag0
(g57
g2
Ntp1151
Rp1152
(dp1153
g11
(lp1154
g125
ag126
ag127
ag128
ag129
ag130
ag131
asg14
I00
sg126
g0
(g67
g2
Ntp1155
Rp1156
(dp1157
g14
I00
sg32
I01
sg15
I00
sg11
(lp1158
sbsg15
I00
sg125
g0
(g67
g2
Ntp1159
Rp1160
(dp1161
g14
I00
sg32
I01
sg139
g0
(g85
g2
Ntp1162
Rp1163
(dp1164
g14
I00
sg32
I01
sg81
F9.9999999999999995e-21
sg15
I00
sbsg148
g0
(g77
g2
Ntp1165
Rp1166
(dp1167
g14
I00
sg32
I01
sg81
g152
sg15
I00
sbsg15
I00
sS'timeSigmaEB'
p1168
g0
(g85
g2
Ntp1169
Rp1170
(dp1171
g14
I00
sg32
I01
sg81
F10.0
sg15
I00
sbsS'clusterTimeResFromSeed'
p1172
g0
(g219
g2
Ntp1173
Rp1174
(dp1175
g14
I00
sg32
I01
sg81
I00
sg15
I00
sbsg153
g0
(g85
g2
Ntp1176
Rp1177
(dp1178
g14
I00
sg32
I01
sg81
F10.0
sg15
I00
sbsS'maxNSigmaTime'
p1179
g0
(g85
g2
Ntp1180
Rp1181
(dp1182
g14
I00
sg32
I01
sg81
F10.0
sg15
I00
sbsS'minChi2Prob'
p1183
g0
(g85
g2
Ntp1184
Rp1185
(dp1186
g14
I00
sg32
I01
sg81
F0.0
sg15
I00
sbsg508
g0
(g67
g2
Ntp1187
Rp1188
(dp1189
g14
I00
sg32
I01
sg161
g0
(g85
g2
Ntp1190
Rp1191
(dp1192
g14
I00
sg32
I01
sg81
F0.80000000000000004
sg15
I00
sbsg165
g0
(g166
g2
Ntp1193
Rp1194
(dp1195
g14
I00
sg32
I01
sg81
I-1
sg15
I00
sbsg15
I00
sg170
g0
(g85
g2
Ntp1196
Rp1197
(dp1198
g14
I00
sg32
I01
sg81
F1.0000000000000001e-09
sg15
I00
sbsg11
(lp1199
g175
ag170
ag161
ag165
ag148
asg175
g0
(g85
g2
Ntp1200
Rp1201
(dp1202
g14
I00
sg32
I01
sg81
F1.0000000000000001e-09
sg15
I00
sbsg148
g0
(g77
g2
Ntp1203
Rp1204
(dp1205
g14
I00
sg32
I01
sg81
g182
sg15
I00
sbsbsg157
g0
(g67
g2
Ntp1206
Rp1207
(dp1208
g14
I00
sg32
I01
sg161
g0
(g85
g2
Ntp1209
Rp1210
(dp1211
g14
I00
sg32
I01
sg81
F0.80000000000000004
sg15
I00
sbsg165
g0
(g166
g2
Ntp1212
Rp1213
(dp1214
g14
I00
sg32
I01
sg81
I5
sg15
I00
sbsg15
I00
sg170
g0
(g85
g2
Ntp1215
Rp1216
(dp1217
g14
I00
sg32
I01
sg81
F1.0000000000000001e-09
sg15
I00
sbsg11
(lp1218
g175
ag170
ag161
ag165
ag148
asg175
g0
(g85
g2
Ntp1219
Rp1220
(dp1221
g14
I00
sg32
I01
sg81
F1.0000000000000001e-09
sg15
I00
sbsg148
g0
(g77
g2
Ntp1222
Rp1223
(dp1224
g14
I00
sg32
I01
sg81
g182
sg15
I00
sbsbsg143
g0
(g144
g2
Ntp1225
Rp1226
(dp1227
g14
I00
sg32
I01
sg81
I50
sg15
I00
sbsg212
g0
(g85
g2
Ntp1228
Rp1229
(dp1230
g14
I00
sg32
I01
sg81
F1e-08
sg15
I00
sbsS'timeSigmaEE'
p1231
g0
(g85
g2
Ntp1232
Rp1233
(dp1234
g14
I00
sg32
I01
sg81
F10.0
sg15
I00
sbsg183
g0
(g65
g20
(lp1235
g0
(g67
g2
Ntp1236
Rp1237
(dp1238
g14
I00
sg32
I01
sg15
I00
sg188
g0
(g85
g2
Ntp1239
Rp1240
(dp1241
g14
I00
sg32
I01
sg81
F0.80000000000000004
sg15
I00
sbsg11
(lp1242
g193
ag188
asg193
g0
(g77
g2
Ntp1243
Rp1244
(dp1245
g14
I00
sg32
I01
sg81
S'HCAL_BARREL1'
p1246
sg15
I00
sbsbag0
(g67
g2
Ntp1247
Rp1248
(dp1249
g14
I00
sg32
I01
sg15
I00
sg188
g0
(g85
g2
Ntp1250
Rp1251
(dp1252
g14
I00
sg32
I01
sg81
F0.80000000000000004
sg15
I00
sbsg11
(lp1253
g193
ag188
asg193
g0
(g77
g2
Ntp1254
Rp1255
(dp1256
g14
I00
sg32
I01
sg81
S'HCAL_ENDCAP'
p1257
sg15
I00
sbsbatp1258
Rp1259
(dp1260
g14
I00
sg32
I01
sg15
I00
sg33
I1
sbsg11
(lp1261
g1172
ag1231
ag139
ag143
ag148
ag1168
ag518
ag153
ag157
ag1179
ag1183
ag508
ag183
ag212
ag554
ag217
ag218
asg554
g0
(g67
g2
Ntp1262
Rp1263
(dp1264
g14
I00
sg32
I01
sg522
g0
(g85
g2
Ntp1265
Rp1266
(dp1267
g14
I00
sg32
I01
sg81
I8
sg15
I00
sbsg15
I00
sg526
g0
(g85
g2
Ntp1268
Rp1269
(dp1270
g14
I00
sg32
I01
sg81
F2.8199999999999998
sg15
I00
sbsg530
g0
(g85
g2
Ntp1271
Rp1272
(dp1273
g14
I00
sg32
I01
sg81
F4.2400000000000002
sg15
I00
sbsg534
g0
(g85
g2
Ntp1274
Rp1275
(dp1276
g14
I00
sg32
I01
sg81
F0.0
sg15
I00
sbsg538
g0
(g85
g2
Ntp1277
Rp1278
(dp1279
g14
I00
sg32
I01
sg81
F21.859999999999999
sg15
I00
sbsg542
g0
(g85
g2
Ntp1280
Rp1281
(dp1282
g14
I00
sg32
I01
sg81
F6.0
sg15
I00
sbsg11
(lp1283
g530
ag522
ag526
ag538
ag534
ag542
ag547
asg547
g0
(g85
g2
Ntp1284
Rp1285
(dp1286
g14
I00
sg32
I01
sg81
F15.0
sg15
I00
sbsbsg218
g0
(g219
g2
Ntp1287
Rp1288
(dp1289
g14
I00
sg32
I01
sg81
I01
sg15
I00
sbsg518
g1263
sg217
g0
(g85
g2
Ntp1290
Rp1291
(dp1292
g14
I00
sg32
I01
sg81
F9.9999999999999995e-08
sg15
I00
sbsbsg17
S'/cvmfs/cms.cern.ch/slc6_amd64_gcc491/cms/cmssw-patch/CMSSW_7_4_4_patch2/python/RecoParticleFlow/PFClusterProducer/particleFlowClusterHBHE_cfi.py'
p1293
sg128
g0
(g67
g2
Ntp1294
Rp1295
(dp1296
g14
I00
sg32
I01
sg15
I00
sg11
(lp1297
sbsg129
g0
(g65
g20
(lp1298
tp1299
Rp1300
(dp1301
g14
I00
sg32
I01
sg15
I00
sg33
I1
sbsg16
I80
sg130
g0
(g67
g2
Ntp1302
Rp1303
(dp1304
g14
I00
sg32
I01
sg148
g0
(g77
g2
Ntp1305
Rp1306
(dp1307
g14
I00
sg32
I01
sg81
g241
sg15
I00
sbsg15
I00
sg242
g0
(g65
g20
(lp1308
g0
(g67
g2
Ntp1309
Rp1310
(dp1311
g14
I00
sg32
I01
sg247
g0
(g85
g2
Ntp1312
Rp1313
(dp1314
g14
I00
sg32
I01
sg81
F1.0
sg15
I00
sbsg15
I00
sg251
g0
(g85
g2
Ntp1315
Rp1316
(dp1317
g14
I00
sg32
I01
sg81
F0.0
sg15
I00
sbsg11
(lp1318
g247
ag251
ag193
asg193
g0
(g77
g2
Ntp1319
Rp1320
(dp1321
g14
I00
sg32
I01
sg81
g1246
sg15
I00
sbsbag0
(g67
g2
Ntp1322
Rp1323
(dp1324
g14
I00
sg32
I01
sg247
g0
(g85
g2
Ntp1325
Rp1326
(dp1327
g14
I00
sg32
I01
sg81
F1.1000000000000001
sg15
I00
sbsg15
I00
sg251
g0
(g85
g2
Ntp1328
Rp1329
(dp1330
g14
I00
sg32
I01
sg81
F0.0
sg15
I00
sbsg11
(lp1331
g247
ag251
ag193
asg193
g0
(g77
g2
Ntp1332
Rp1333
(dp1334
g14
I00
sg32
I01
sg81
g1257
sg15
I00
sbsbatp1335
Rp1336
(dp1337
g14
I00
sg32
I01
sg15
I00
sg33
I1
sbsg11
(lp1338
g148
ag242
ag276
asg276
g0
(g166
g2
Ntp1339
Rp1340
(dp1341
g14
I00
sg32
I01
sg81
I4
sg15
I00
sbsbsg131
g0
(g93
g2
Ntp1342
Rp1343
(dp1344
g14
I00
sg32
I01
sg15
I00
sg97
g984
sg99
g100
sg101
g100
sbsg34
S'particleFlowClusterHBHE'
p1345
sg35
g284
sg127
g0
(g67
g2
Ntp1346
Rp1347
(dp1348
g14
I00
sg32
I01
sg148
g0
(g77
g2
Ntp1349
Rp1350
(dp1351
g14
I00
sg32
I01
sg81
g291
sg15
I00
sbsg15
I00
sg242
g0
(g65
g20
(lp1352
g0
(g67
g2
Ntp1353
Rp1354
(dp1355
g14
I00
sg32
I01
sg15
I00
sg11
(lp1356
g193
ag297
ag298
asg193
g0
(g77
g2
Ntp1357
Rp1358
(dp1359
g14
I00
sg32
I01
sg81
g1246
sg15
I00
sbsg297
g0
(g85
g2
Ntp1360
Rp1361
(dp1362
g14
I00
sg32
I01
sg81
F0.0
sg15
I00
sbsg298
g0
(g85
g2
Ntp1363
Rp1364
(dp1365
g14
I00
sg32
I01
sg81
F0.80000000000000004
sg15
I00
sbsbag0
(g67
g2
Ntp1366
Rp1367
(dp1368
g14
I00
sg32
I01
sg15
I00
sg11
(lp1369
g193
ag297
ag298
asg193
g0
(g77
g2
Ntp1370
Rp1371
(dp1372
g14
I00
sg32
I01
sg81
g1257
sg15
I00
sbsg297
g0
(g85
g2
Ntp1373
Rp1374
(dp1375
g14
I00
sg32
I01
sg81
F0.0
sg15
I00
sbsg298
g0
(g85
g2
Ntp1376
Rp1377
(dp1378
g14
I00
sg32
I01
sg81
F0.80000000000000004
sg15
I00
sbsbatp1379
Rp1380
(dp1381
g14
I00
sg32
I01
sg15
I00
sg33
I1
sbsg324
g0
(g219
g2
Ntp1382
Rp1383
(dp1384
g14
I00
sg32
I01
sg81
I01
sg15
I00
sbsg11
(lp1385
g148
ag242
ag324
asbsbag0
(g57
g2
Ntp1386
Rp1387
(dp1388
g11
(lp1389
g125
ag126
ag127
ag128
ag129
ag130
ag131
asg14
I00
sg126
g0
(g67
g2
Ntp1390
Rp1391
(dp1392
g14
I00
sg32
I01
sg15
I00
sg11
(lp1393
sbsg15
I00
sg125
g0
(g67
g2
Ntp1394
Rp1395
(dp1396
g14
I00
sg32
I01
sg143
g0
(g144
g2
Ntp1397
Rp1398
(dp1399
g14
I00
sg32
I01
sg81
I50
sg15
I00
sbsg148
g0
(g77
g2
Ntp1400
Rp1401
(dp1402
g14
I00
sg32
I01
sg81
g152
sg15
I00
sbsg15
I00
sg508
g0
(g67
g2
Ntp1403
Rp1404
(dp1405
g14
I00
sg32
I01
sg161
g0
(g85
g2
Ntp1406
Rp1407
(dp1408
g14
I00
sg32
I01
sg81
F0.80000000000000004
sg15
I00
sbsg165
g0
(g166
g2
Ntp1409
Rp1410
(dp1411
g14
I00
sg32
I01
sg81
I-1
sg15
I00
sbsg15
I00
sg170
g0
(g85
g2
Ntp1412
Rp1413
(dp1414
g14
I00
sg32
I01
sg81
F1.0000000000000001e-09
sg15
I00
sbsg11
(lp1415
g175
ag170
ag161
ag165
ag148
asg175
g0
(g85
g2
Ntp1416
Rp1417
(dp1418
g14
I00
sg32
I01
sg81
F1.0000000000000001e-09
sg15
I00
sbsg148
g0
(g77
g2
Ntp1419
Rp1420
(dp1421
g14
I00
sg32
I01
sg81
g182
sg15
I00
sbsbsg153
g0
(g85
g2
Ntp1422
Rp1423
(dp1424
g14
I00
sg32
I01
sg81
F10.0
sg15
I00
sbsg183
g0
(g65
g20
(lp1425
g0
(g67
g2
Ntp1426
Rp1427
(dp1428
g14
I00
sg32
I01
sg15
I00
sg188
g0
(g85
g2
Ntp1429
Rp1430
(dp1431
g14
I00
sg32
I01
sg81
F0.80000000000000004
sg15
I00
sbsg11
(lp1432
g193
ag188
asg193
g0
(g77
g2
Ntp1433
Rp1434
(dp1435
g14
I00
sg32
I01
sg81
S'HF_EM'
p1436
sg15
I00
sbsbag0
(g67
g2
Ntp1437
Rp1438
(dp1439
g14
I00
sg32
I01
sg15
I00
sg188
g0
(g85
g2
Ntp1440
Rp1441
(dp1442
g14
I00
sg32
I01
sg81
F0.80000000000000004
sg15
I00
sbsg11
(lp1443
g193
ag188
asg193
g0
(g77
g2
Ntp1444
Rp1445
(dp1446
g14
I00
sg32
I01
sg81
S'HF_HAD'
p1447
sg15
I00
sbsbatp1448
Rp1449
(dp1450
g14
I00
sg32
I01
sg15
I00
sg33
I1
sbsg157
g0
(g67
g2
Ntp1451
Rp1452
(dp1453
g14
I00
sg32
I01
sg161
g0
(g85
g2
Ntp1454
Rp1455
(dp1456
g14
I00
sg32
I01
sg81
F0.80000000000000004
sg15
I00
sbsg165
g0
(g166
g2
Ntp1457
Rp1458
(dp1459
g14
I00
sg32
I01
sg81
I5
sg15
I00
sbsg15
I00
sg170
g0
(g85
g2
Ntp1460
Rp1461
(dp1462
g14
I00
sg32
I01
sg81
F1.0000000000000001e-09
sg15
I00
sbsg11
(lp1463
g175
ag170
ag161
ag165
ag148
asg175
g0
(g85
g2
Ntp1464
Rp1465
(dp1466
g14
I00
sg32
I01
sg81
F1.0000000000000001e-09
sg15
I00
sbsg148
g0
(g77
g2
Ntp1467
Rp1468
(dp1469
g14
I00
sg32
I01
sg81
g182
sg15
I00
sbsbsg139
g0
(g85
g2
Ntp1470
Rp1471
(dp1472
g14
I00
sg32
I01
sg81
F9.9999999999999995e-21
sg15
I00
sbsg212
g0
(g85
g2
Ntp1473
Rp1474
(dp1475
g14
I00
sg32
I01
sg81
F1e-08
sg15
I00
sbsg11
(lp1476
g148
ag143
ag139
ag508
ag153
ag157
ag183
ag212
ag217
ag218
asg218
g0
(g219
g2
Ntp1477
Rp1478
(dp1479
g14
I00
sg32
I01
sg81
I01
sg15
I00
sbsg217
g0
(g85
g2
Ntp1480
Rp1481
(dp1482
g14
I00
sg32
I01
sg81
F9.9999999999999995e-08
sg15
I00
sbsbsg17
S'/cvmfs/cms.cern.ch/slc6_amd64_gcc491/cms/cmssw-patch/CMSSW_7_4_4_patch2/python/RecoParticleFlow/PFClusterProducer/particleFlowClusterHF_cfi.py'
p1483
sg128
g0
(g67
g2
Ntp1484
Rp1485
(dp1486
g14
I00
sg32
I01
sg15
I00
sg11
(lp1487
sbsg129
g0
(g65
g20
(lp1488
g0
(g67
g2
Ntp1489
Rp1490
(dp1491
g14
I00
sg32
I01
sg148
g0
(g77
g2
Ntp1492
Rp1493
(dp1494
g14
I00
sg32
I01
sg81
g711
sg15
I00
sbsg15
I00
sg712
g0
(g65
g20
(lp1495
g0
(g67
g2
Ntp1496
Rp1497
(dp1498
g14
I00
sg32
I01
sg717
g0
(g85
g2
Ntp1499
Rp1500
(dp1501
g14
I00
sg32
I01
sg81
F0.11
sg15
I00
sbsg15
I00
sg721
g0
(g85
g2
Ntp1502
Rp1503
(dp1504
g14
I00
sg32
I01
sg81
F-0.19
sg15
I00
sbsg725
g0
(g85
g2
Ntp1505
Rp1506
(dp1507
g14
I00
sg32
I01
sg81
F1.0
sg15
I00
sbsg729
g0
(g85
g2
Ntp1508
Rp1509
(dp1510
g14
I00
sg32
I01
sg81
F1.0
sg15
I00
sbsg733
g0
(g85
g2
Ntp1511
Rp1512
(dp1513
g14
I00
sg32
I01
sg81
F80.0
sg15
I00
sbsg737
g0
(g85
g2
Ntp1514
Rp1515
(dp1516
g14
I00
sg32
I01
sg81
F1000000000.0
sg15
I00
sbsg11
(lp1517
g717
ag721
ag725
ag729
ag737
ag733
ag742
ag193
asg742
g0
(g85
g2
Ntp1518
Rp1519
(dp1520
g14
I00
sg32
I01
sg81
F-1.0
sg15
I00
sbsg193
g0
(g77
g2
Ntp1521
Rp1522
(dp1523
g14
I00
sg32
I01
sg81
g1436
sg15
I00
sbsbag0
(g67
g2
Ntp1524
Rp1525
(dp1526
g14
I00
sg32
I01
sg717
g0
(g85
g2
Ntp1527
Rp1528
(dp1529
g14
I00
sg32
I01
sg81
F0.044999999999999998
sg15
I00
sbsg15
I00
sg721
g0
(g85
g2
Ntp1530
Rp1531
(dp1532
g14
I00
sg32
I01
sg81
F-0.080000000000000002
sg15
I00
sbsg725
g0
(g85
g2
Ntp1533
Rp1534
(dp1535
g14
I00
sg32
I01
sg81
F1.0
sg15
I00
sbsg729
g0
(g85
g2
Ntp1536
Rp1537
(dp1538
g14
I00
sg32
I01
sg81
F1.0
sg15
I00
sbsg733
g0
(g85
g2
Ntp1539
Rp1540
(dp1541
g14
I00
sg32
I01
sg81
F120.0
sg15
I00
sbsg737
g0
(g85
g2
Ntp1542
Rp1543
(dp1544
g14
I00
sg32
I01
sg81
F1000000000.0
sg15
I00
sbsg11
(lp1545
g717
ag721
ag725
ag729
ag737
ag733
ag742
ag193
asg742
g0
(g85
g2
Ntp1546
Rp1547
(dp1548
g14
I00
sg32
I01
sg81
F-1.0
sg15
I00
sbsg193
g0
(g77
g2
Ntp1549
Rp1550
(dp1551
g14
I00
sg32
I01
sg81
g1447
sg15
I00
sbsbatp1552
Rp1553
(dp1554
g14
I00
sg32
I01
sg15
I00
sg33
I1
sbsg11
(lp1555
g148
ag712
asbatp1556
Rp1557
(dp1558
g14
I00
sg32
I01
sg15
I00
sg33
I1
sbsg16
I112
sg130
g0
(g67
g2
Ntp1559
Rp1560
(dp1561
g14
I00
sg32
I01
sg148
g0
(g77
g2
Ntp1562
Rp1563
(dp1564
g14
I00
sg32
I01
sg81
g241
sg15
I00
sbsg15
I00
sg242
g0
(g65
g20
(lp1565
g0
(g67
g2
Ntp1566
Rp1567
(dp1568
g14
I00
sg32
I01
sg247
g0
(g85
g2
Ntp1569
Rp1570
(dp1571
g14
I00
sg32
I01
sg81
F1.3999999999999999
sg15
I00
sbsg15
I00
sg251
g0
(g85
g2
Ntp1572
Rp1573
(dp1574
g14
I00
sg32
I01
sg81
F0.0
sg15
I00
sbsg11
(lp1575
g247
ag251
ag193
asg193
g0
(g77
g2
Ntp1576
Rp1577
(dp1578
g14
I00
sg32
I01
sg81
g1436
sg15
I00
sbsbag0
(g67
g2
Ntp1579
Rp1580
(dp1581
g14
I00
sg32
I01
sg247
g0
(g85
g2
Ntp1582
Rp1583
(dp1584
g14
I00
sg32
I01
sg81
F1.3999999999999999
sg15
I00
sbsg15
I00
sg251
g0
(g85
g2
Ntp1585
Rp1586
(dp1587
g14
I00
sg32
I01
sg81
F0.0
sg15
I00
sbsg11
(lp1588
g247
ag251
ag193
asg193
g0
(g77
g2
Ntp1589
Rp1590
(dp1591
g14
I00
sg32
I01
sg81
g1447
sg15
I00
sbsbatp1592
Rp1593
(dp1594
g14
I00
sg32
I01
sg15
I00
sg33
I1
sbsg11
(lp1595
g148
ag242
ag276
asg276
g0
(g166
g2
Ntp1596
Rp1597
(dp1598
g14
I00
sg32
I01
sg81
I0
sg15
I00
sbsbsg131
g0
(g93
g2
Ntp1599
Rp1600
(dp1601
g14
I00
sg32
I01
sg15
I00
sg97
g1135
sg99
g100
sg101
g100
sbsg34
S'particleFlowClusterHF'
p1602
sg35
g284
sg127
g0
(g67
g2
Ntp1603
Rp1604
(dp1605
g14
I00
sg32
I01
sg148
g0
(g77
g2
Ntp1606
Rp1607
(dp1608
g14
I00
sg32
I01
sg81
g291
sg15
I00
sbsg15
I00
sg242
g0
(g65
g20
(lp1609
g0
(g67
g2
Ntp1610
Rp1611
(dp1612
g14
I00
sg32
I01
sg15
I00
sg11
(lp1613
g193
ag297
ag298
asg193
g0
(g77
g2
Ntp1614
Rp1615
(dp1616
g14
I00
sg32
I01
sg81
g1436
sg15
I00
sbsg297
g0
(g85
g2
Ntp1617
Rp1618
(dp1619
g14
I00
sg32
I01
sg81
F0.0
sg15
I00
sbsg298
g0
(g85
g2
Ntp1620
Rp1621
(dp1622
g14
I00
sg32
I01
sg81
F0.80000000000000004
sg15
I00
sbsbag0
(g67
g2
Ntp1623
Rp1624
(dp1625
g14
I00
sg32
I01
sg15
I00
sg11
(lp1626
g193
ag297
ag298
asg193
g0
(g77
g2
Ntp1627
Rp1628
(dp1629
g14
I00
sg32
I01
sg81
g1447
sg15
I00
sbsg297
g0
(g85
g2
Ntp1630
Rp1631
(dp1632
g14
I00
sg32
I01
sg81
F0.0
sg15
I00
sbsg298
g0
(g85
g2
Ntp1633
Rp1634
(dp1635
g14
I00
sg32
I01
sg81
F0.80000000000000004
sg15
I00
sbsbatp1636
Rp1637
(dp1638
g14
I00
sg32
I01
sg15
I00
sg33
I1
sbsg324
g0
(g219
g2
Ntp1639
Rp1640
(dp1641
g14
I00
sg32
I01
sg81
I00
sg15
I00
sbsg11
(lp1642
g148
ag242
ag324
asbsbag0
(g57
g2
Ntp1643
Rp1644
(dp1645
g11
(lp1646
g125
ag128
ag126
aS'clustersSource'
p1647
asg14
I00
sg126
g0
(g67
g2
Ntp1648
Rp1649
(dp1650
g14
I00
sg32
I01
sg15
I00
sg11
(lp1651
sbsg15
I00
sg125
g0
(g67
g2
Ntp1652
Rp1653
(dp1654
g14
I00
sg32
I01
sg148
g0
(g77
g2
Ntp1655
Rp1656
(dp1657
g14
I00
sg32
I01
sg81
S'PFMultiDepthClusterizer'
p1658
sg15
I00
sbsg15
I00
sg508
g0
(g67
g2
Ntp1659
Rp1660
(dp1661
g14
I00
sg32
I01
sg161
g0
(g85
g2
Ntp1662
Rp1663
(dp1664
g14
I00
sg32
I01
sg81
F0.80000000000000004
sg15
I00
sbsg165
g0
(g166
g2
Ntp1665
Rp1666
(dp1667
g14
I00
sg32
I01
sg81
I-1
sg15
I00
sbsg15
I00
sg170
g0
(g85
g2
Ntp1668
Rp1669
(dp1670
g14
I00
sg32
I01
sg81
F1.0000000000000001e-09
sg15
I00
sbsg11
(lp1671
g175
ag170
ag161
ag165
ag148
asg175
g0
(g85
g2
Ntp1672
Rp1673
(dp1674
g14
I00
sg32
I01
sg81
F1.0000000000000001e-09
sg15
I00
sbsg148
g0
(g77
g2
Ntp1675
Rp1676
(dp1677
g14
I00
sg32
I01
sg81
g182
sg15
I00
sbsbsS'nSigmaPhi'
p1678
g0
(g85
g2
Ntp1679
Rp1680
(dp1681
g14
I00
sg32
I01
sg81
F2.0
sg15
I00
sbsg11
(lp1682
S'nSigmaEta'
p1683
ag1678
ag148
ag508
ag217
asg1683
g0
(g85
g2
Ntp1684
Rp1685
(dp1686
g14
I00
sg32
I01
sg81
F2.0
sg15
I00
sbsg217
g0
(g85
g2
Ntp1687
Rp1688
(dp1689
g14
I00
sg32
I01
sg81
F9.9999999999999995e-08
sg15
I00
sbsbsg17
S'/cvmfs/cms.cern.ch/slc6_amd64_gcc491/cms/cmssw-patch/CMSSW_7_4_4_patch2/python/RecoParticleFlow/PFClusterProducer/particleFlowClusterHCAL_cfi.py'
p1690
sg128
g0
(g67
g2
Ntp1691
Rp1692
(dp1693
g14
I00
sg32
I01
sg15
I00
sg11
(lp1694
sbsg1647
g0
(g93
g2
Ntp1695
Rp1696
(dp1697
g14
I00
sg32
I01
sg15
I00
sg97
g1345
sg99
g100
sg101
g100
sbsg16
I20
sg34
S'particleFlowClusterHCAL'
p1698
sg35
S'PFMultiDepthClusterProducer'
p1699
sbasbsg15
I00
sg34
S'pfClusteringHBHEHF'
p1700
sbag0
(g39
g2
Ntp1701
Rp1702
(dp1703
g14
I00
sg43
g0
(g44
g2
Ntp1704
Rp1705
(dp1706
g48
(lp1707
g0
(g57
g2
Ntp1708
Rp1709
(dp1710
g11
(lp1711
g62
ag63
asg14
I00
sg15
I00
sg16
I24
sg17
S'/cvmfs/cms.cern.ch/slc6_amd64_gcc491/cms/cmssw-patch/CMSSW_7_4_4_patch2/python/RecoParticleFlow/PFClusterProducer/particleFlowRecHitHO_cfi.py'
p1712
sg62
g0
(g65
g20
(lp1713
g0
(g67
g2
Ntp1714
Rp1715
(dp1716
g14
I00
sg32
I01
sg15
I00
sg71
g0
(g65
g20
(lp1717
g0
(g67
g2
Ntp1718
Rp1719
(dp1720
g14
I00
sg32
I01
sg76
g0
(g77
g2
Ntp1721
Rp1722
(dp1723
g14
I00
sg32
I01
sg81
S'PFRecHitQTestHOThreshold'
p1724
sg15
I00
sbsS'threshold_ring0'
p1725
g0
(g85
g2
Ntp1726
Rp1727
(dp1728
g14
I00
sg32
I01
sg81
F0.40000000000000002
sg15
I00
sbsS'threshold_ring12'
p1729
g0
(g85
g2
Ntp1730
Rp1731
(dp1732
g14
I00
sg32
I01
sg81
F1.0
sg15
I00
sbsg11
(lp1733
g1725
ag76
ag1729
asg15
I00
sbag0
(g67
g2
Ntp1734
Rp1735
(dp1736
g14
I00
sg32
I01
sg15
I00
sg946
g0
(g947
g20
(lp1737
I11
atp1738
Rp1739
(dp1740
g14
I00
sg32
I01
sg15
I00
sbsg952
g0
(g953
g20
(lp1741
F0.0
atp1742
Rp1743
(dp1744
g14
I00
sg32
I01
sg15
I00
sbsg958
g0
(g19
g20
(lp1745
g960
atp1746
Rp1747
(dp1748
g14
I00
sg32
I01
sg15
I00
sg33
I1
sbsg11
(lp1749
g946
ag952
ag958
ag76
asg76
g0
(g77
g2
Ntp1750
Rp1751
(dp1752
g14
I00
sg32
I01
sg81
g968
sg15
I00
sbsbatp1753
Rp1754
(dp1755
g14
I00
sg32
I01
sg15
I00
sg33
I1
sbsg92
g0
(g93
g2
Ntp1756
Rp1757
(dp1758
g14
I00
sg32
I01
sg15
I00
sg97
S'horeco'
p1759
sg99
g100
sg101
g100
sbsg11
(lp1760
g92
ag76
ag71
asg76
g0
(g77
g2
Ntp1761
Rp1762
(dp1763
g14
I00
sg32
I01
sg81
S'PFHORecHitCreator'
p1764
sg15
I00
sbsbatp1765
Rp1766
(dp1767
g14
I00
sg32
I01
sg15
I00
sg33
I1
sbsg34
S'particleFlowRecHitHO'
p1768
sg63
g0
(g67
g2
Ntp1769
Rp1770
(dp1771
g14
I00
sg32
I01
sg15
I00
sg76
g0
(g77
g2
Ntp1772
Rp1773
(dp1774
g14
I00
sg32
I01
sg81
g1022
sg15
I00
sbsg11
(lp1775
g76
asbsg35
g120
sbag0
(g57
g2
Ntp1776
Rp1777
(dp1778
g11
(lp1779
g125
ag126
ag127
ag128
ag129
ag130
ag131
asg14
I00
sg126
g0
(g67
g2
Ntp1780
Rp1781
(dp1782
g14
I00
sg32
I01
sg15
I00
sg11
(lp1783
sbsg15
I00
sg125
g0
(g67
g2
Ntp1784
Rp1785
(dp1786
g14
I00
sg32
I01
sg143
g0
(g144
g2
Ntp1787
Rp1788
(dp1789
g14
I00
sg32
I01
sg81
I50
sg15
I00
sbsg148
g0
(g77
g2
Ntp1790
Rp1791
(dp1792
g14
I00
sg32
I01
sg81
g152
sg15
I00
sbsg15
I00
sg508
g0
(g67
g2
Ntp1793
Rp1794
(dp1795
g14
I00
sg32
I01
sg161
g0
(g85
g2
Ntp1796
Rp1797
(dp1798
g14
I00
sg32
I01
sg81
F0.5
sg15
I00
sbsg165
g0
(g166
g2
Ntp1799
Rp1800
(dp1801
g14
I00
sg32
I01
sg81
I-1
sg15
I00
sbsg15
I00
sg170
g0
(g85
g2
Ntp1802
Rp1803
(dp1804
g14
I00
sg32
I01
sg81
F1.0000000000000001e-09
sg15
I00
sbsg11
(lp1805
g175
ag170
ag161
ag165
ag148
asg175
g0
(g85
g2
Ntp1806
Rp1807
(dp1808
g14
I00
sg32
I01
sg81
F1.0000000000000001e-09
sg15
I00
sbsg148
g0
(g77
g2
Ntp1809
Rp1810
(dp1811
g14
I00
sg32
I01
sg81
g182
sg15
I00
sbsbsg153
g0
(g85
g2
Ntp1812
Rp1813
(dp1814
g14
I00
sg32
I01
sg81
F10.0
sg15
I00
sbsg183
g0
(g65
g20
(lp1815
g0
(g67
g2
Ntp1816
Rp1817
(dp1818
g14
I00
sg32
I01
sg15
I00
sg188
g0
(g85
g2
Ntp1819
Rp1820
(dp1821
g14
I00
sg32
I01
sg81
F0.5
sg15
I00
sbsg11
(lp1822
g193
ag188
asg193
g0
(g77
g2
Ntp1823
Rp1824
(dp1825
g14
I00
sg32
I01
sg81
S'HCAL_BARREL2_RING0'
p1826
sg15
I00
sbsbag0
(g67
g2
Ntp1827
Rp1828
(dp1829
g14
I00
sg32
I01
sg15
I00
sg188
g0
(g85
g2
Ntp1830
Rp1831
(dp1832
g14
I00
sg32
I01
sg81
F1.0
sg15
I00
sbsg11
(lp1833
g193
ag188
asg193
g0
(g77
g2
Ntp1834
Rp1835
(dp1836
g14
I00
sg32
I01
sg81
S'HCAL_BARREL2_RING1'
p1837
sg15
I00
sbsbatp1838
Rp1839
(dp1840
g14
I00
sg32
I01
sg15
I00
sg33
I1
sbsg157
g0
(g67
g2
Ntp1841
Rp1842
(dp1843
g14
I00
sg32
I01
sg161
g0
(g85
g2
Ntp1844
Rp1845
(dp1846
g14
I00
sg32
I01
sg81
F0.5
sg15
I00
sbsg165
g0
(g166
g2
Ntp1847
Rp1848
(dp1849
g14
I00
sg32
I01
sg81
I5
sg15
I00
sbsg15
I00
sg170
g0
(g85
g2
Ntp1850
Rp1851
(dp1852
g14
I00
sg32
I01
sg81
F1.0000000000000001e-09
sg15
I00
sbsg11
(lp1853
g175
ag170
ag161
ag165
ag148
asg175
g0
(g85
g2
Ntp1854
Rp1855
(dp1856
g14
I00
sg32
I01
sg81
F1.0000000000000001e-09
sg15
I00
sbsg148
g0
(g77
g2
Ntp1857
Rp1858
(dp1859
g14
I00
sg32
I01
sg81
g182
sg15
I00
sbsbsg139
g0
(g85
g2
Ntp1860
Rp1861
(dp1862
g14
I00
sg32
I01
sg81
F9.9999999999999995e-21
sg15
I00
sbsg212
g0
(g85
g2
Ntp1863
Rp1864
(dp1865
g14
I00
sg32
I01
sg81
F1e-08
sg15
I00
sbsg11
(lp1866
g148
ag143
ag139
ag508
ag153
ag157
ag183
ag212
ag217
ag218
asg218
g0
(g219
g2
Ntp1867
Rp1868
(dp1869
g14
I00
sg32
I01
sg81
I01
sg15
I00
sbsg217
g0
(g85
g2
Ntp1870
Rp1871
(dp1872
g14
I00
sg32
I01
sg81
F9.9999999999999995e-08
sg15
I00
sbsbsg17
S'/cvmfs/cms.cern.ch/slc6_amd64_gcc491/cms/cmssw-patch/CMSSW_7_4_4_patch2/python/RecoParticleFlow/PFClusterProducer/particleFlowClusterHO_cfi.py'
p1873
sg128
g0
(g67
g2
Ntp1874
Rp1875
(dp1876
g14
I00
sg32
I01
sg15
I00
sg11
(lp1877
sbsg129
g0
(g65
g20
(lp1878
tp1879
Rp1880
(dp1881
g14
I00
sg32
I01
sg15
I00
sg33
I1
sbsg16
I86
sg130
g0
(g67
g2
Ntp1882
Rp1883
(dp1884
g14
I00
sg32
I01
sg148
g0
(g77
g2
Ntp1885
Rp1886
(dp1887
g14
I00
sg32
I01
sg81
g241
sg15
I00
sbsg15
I00
sg242
g0
(g65
g20
(lp1888
g0
(g67
g2
Ntp1889
Rp1890
(dp1891
g14
I00
sg32
I01
sg247
g0
(g85
g2
Ntp1892
Rp1893
(dp1894
g14
I00
sg32
I01
sg81
F1.0
sg15
I00
sbsg15
I00
sg251
g0
(g85
g2
Ntp1895
Rp1896
(dp1897
g14
I00
sg32
I01
sg81
F0.0
sg15
I00
sbsg11
(lp1898
g247
ag251
ag193
asg193
g0
(g77
g2
Ntp1899
Rp1900
(dp1901
g14
I00
sg32
I01
sg81
g1826
sg15
I00
sbsbag0
(g67
g2
Ntp1902
Rp1903
(dp1904
g14
I00
sg32
I01
sg247
g0
(g85
g2
Ntp1905
Rp1906
(dp1907
g14
I00
sg32
I01
sg81
F3.1000000000000001
sg15
I00
sbsg15
I00
sg251
g0
(g85
g2
Ntp1908
Rp1909
(dp1910
g14
I00
sg32
I01
sg81
F0.0
sg15
I00
sbsg11
(lp1911
g247
ag251
ag193
asg193
g0
(g77
g2
Ntp1912
Rp1913
(dp1914
g14
I00
sg32
I01
sg81
g1837
sg15
I00
sbsbatp1915
Rp1916
(dp1917
g14
I00
sg32
I01
sg15
I00
sg33
I1
sbsg11
(lp1918
g148
ag242
ag276
asg276
g0
(g166
g2
Ntp1919
Rp1920
(dp1921
g14
I00
sg32
I01
sg81
I4
sg15
I00
sbsbsg131
g0
(g93
g2
Ntp1922
Rp1923
(dp1924
g14
I00
sg32
I01
sg15
I00
sg97
g1768
sg99
g100
sg101
g100
sbsg34
S'particleFlowClusterHO'
p1925
sg35
g284
sg127
g0
(g67
g2
Ntp1926
Rp1927
(dp1928
g14
I00
sg32
I01
sg148
g0
(g77
g2
Ntp1929
Rp1930
(dp1931
g14
I00
sg32
I01
sg81
g291
sg15
I00
sbsg15
I00
sg242
g0
(g65
g20
(lp1932
g0
(g67
g2
Ntp1933
Rp1934
(dp1935
g14
I00
sg32
I01
sg15
I00
sg11
(lp1936
g193
ag297
ag298
asg193
g0
(g77
g2
Ntp1937
Rp1938
(dp1939
g14
I00
sg32
I01
sg81
g1826
sg15
I00
sbsg297
g0
(g85
g2
Ntp1940
Rp1941
(dp1942
g14
I00
sg32
I01
sg81
F0.0
sg15
I00
sbsg298
g0
(g85
g2
Ntp1943
Rp1944
(dp1945
g14
I00
sg32
I01
sg81
F0.5
sg15
I00
sbsbag0
(g67
g2
Ntp1946
Rp1947
(dp1948
g14
I00
sg32
I01
sg15
I00
sg11
(lp1949
g193
ag297
ag298
asg193
g0
(g77
g2
Ntp1950
Rp1951
(dp1952
g14
I00
sg32
I01
sg81
g1837
sg15
I00
sbsg297
g0
(g85
g2
Ntp1953
Rp1954
(dp1955
g14
I00
sg32
I01
sg81
F0.0
sg15
I00
sbsg298
g0
(g85
g2
Ntp1956
Rp1957
(dp1958
g14
I00
sg32
I01
sg81
F1.0
sg15
I00
sbsbatp1959
Rp1960
(dp1961
g14
I00
sg32
I01
sg15
I00
sg33
I1
sbsg324
g0
(g219
g2
Ntp1962
Rp1963
(dp1964
g14
I00
sg32
I01
sg81
I01
sg15
I00
sbsg11
(lp1965
g148
ag242
ag324
asbsbasbsg15
I00
sg34
S'pfClusteringHO'
p1966
sbasbsg15
I00
sg34
g38
sbsg915
g331
sg329
g51
sg1966
g1702
sg1700
g917
sS'pfClusterRefsForJets_step'
p1967
g0
(g39
g2
Ntp1968
Rp1969
(dp1970
g14
I00
sg43
g0
(g44
g2
Ntp1971
Rp1972
(dp1973
g48
(lp1974
g338
ag924
ag1024
ag1709
ag462
ag869
ag1152
ag1644
ag1387
ag1777
ag0
(g57
g2
Ntp1975
Rp1976
(dp1977
g11
(lp1978
g92
aS'particleType'
p1979
asg14
I00
sg1979
g0
(g77
g2
Ntp1980
Rp1981
(dp1982
g14
I00
sg32
I01
sg81
S'pi+'
p1983
sg15
I00
sbsg15
I00
sg92
g0
(g93
g2
Ntp1984
Rp1985
(dp1986
g14
I00
sg32
I01
sg15
I00
sg97
g1698
sg99
g100
sg101
g100
sbsg17
S'/afs/cern.ch/user/c/cheidegg/p/CMSSW_7_4_4_patch2/src/MetScanning/skim/python/skim.py'
p1987
sg16
I64
sg34
S'pfClusterRefsForJetsHCAL'
p1988
sg35
S'PFClusterRefCandidateProducer'
p1989
sbag0
(g57
g2
Ntp1990
Rp1991
(dp1992
g11
(lp1993
g92
ag1979
asg14
I00
sg1979
g0
(g77
g2
Ntp1994
Rp1995
(dp1996
g14
I00
sg32
I01
sg81
g1983
sg15
I00
sbsg15
I00
sg92
g0
(g93
g2
Ntp1997
Rp1998
(dp1999
g14
I00
sg32
I01
sg15
I00
sg97
g907
sg99
g100
sg101
g100
sbsg17
g1987
sg16
I68
sg34
S'pfClusterRefsForJetsECAL'
p2000
sg35
g1989
sbag0
(g57
g2
Ntp2001
Rp2002
(dp2003
g11
(lp2004
g92
ag1979
asg14
I00
sg1979
g0
(g77
g2
Ntp2005
Rp2006
(dp2007
g14
I00
sg32
I01
sg81
g1983
sg15
I00
sbsg15
I00
sg92
g0
(g93
g2
Ntp2008
Rp2009
(dp2010
g14
I00
sg32
I01
sg15
I00
sg97
g1602
sg99
g100
sg101
g100
sbsg17
g1987
sg16
I72
sg34
S'pfClusterRefsForJetsHF'
p2011
sg35
g1989
sbag0
(g57
g2
Ntp2012
Rp2013
(dp2014
g11
(lp2015
g92
ag1979
asg14
I00
sg1979
g0
(g77
g2
Ntp2016
Rp2017
(dp2018
g14
I00
sg32
I01
sg81
g1983
sg15
I00
sbsg15
I00
sg92
g0
(g93
g2
Ntp2019
Rp2020
(dp2021
g14
I00
sg32
I01
sg15
I00
sg97
g1925
sg99
g100
sg101
g100
sbsg17
g1987
sg16
I76
sg34
S'pfClusterRefsForJetsHO'
p2022
sg35
g1989
sbag0
(g57
g2
Ntp2023
Rp2024
(dp2025
g11
(lp2026
g92
asg14
I00
sg15
I00
sg92
g0
(cFWCore.ParameterSet.Types
VInputTag
p2027
g20
(lp2028
g1988
ag2000
ag2011
ag2022
atp2029
Rp2030
(dp2031
g14
I00
sg32
I01
sg15
I00
sbsg17
g1987
sg16
I79
sg34
S'pfClusterRefsForJets'
p2032
sg35
S'PFClusterRefCandidateMerger'
p2033
sbasbsg15
I00
sg34
g1967
sbsS'particleFlowClusterWithoutHO'
p2034
g0
(g39
g2
Ntp2035
Rp2036
(dp2037
g14
I00
sg43
g0
(g44
g2
Ntp2038
Rp2039
(dp2040
g48
(lp2041
g51
ag331
ag917
asbsg15
I00
sg34
g2034
sbssg2011
g2002
sg2022
g2013
sS'_Process__source'
p2042
g0
(cFWCore.ParameterSet.Modules
Source
p2043
g2
Ntp2044
Rp2045
(dp2046
g11
(lp2047
S'fileNames'
p2048
asg14
I00
sg15
I00
sg16
I175
sg17
S'/afs/cern.ch/user/c/cheidegg/p/CMSSW_7_4_4_patch2/python/FWCore/ParameterSet/Modules.py'
p2049
sg2048
g0
(g19
g20
(lp2050
S'root://eoscms.cern.ch//store/data/Run2015A/SingleMu/RECO/PromptReco-v1/000/247/070/00000/A2AFED85-AB0C-E511-ACA9-02163E0142B7.root'
p2051
atp2052
Rp2053
(dp2054
g14
I00
sg32
I00
sg15
I00
sg33
I1
sbsg35
S'PoolSource'
p2055
sbsg1602
g1387
sS'source'
p2056
g2045
sg38
g41
sS'CaloTowerGeometryFromDBEP'
p2057
g0
(g7
g2
Ntp2058
Rp2059
(dp2060
g11
(lp2061
S'applyAlignment'
p2062
aS'hcalTopologyConstants'
p2063
asg14
I00
sg15
I01
sg16
I40
sg17
g18
sg2063
g0
(g67
g2
Ntp2064
Rp2065
(dp2066
g14
I00
sg32
I01
sg15
I00
sS'maxDepthHE'
p2067
g0
(g166
g2
Ntp2068
Rp2069
(dp2070
g14
I00
sg32
I01
sg81
I3
sg15
I00
sbsS'maxDepthHB'
p2071
g0
(g166
g2
Ntp2072
Rp2073
(dp2074
g14
I00
sg32
I01
sg81
I2
sg15
I00
sbsg11
(lp2075
g2067
ag2071
aS'mode'
p2076
asg2076
g0
(g77
g2
Ntp2077
Rp2078
(dp2079
g14
I00
sg32
I01
sg81
S'HcalTopologyMode::LHC'
p2080
sg15
I00
sbsbsg34
g2057
sg2062
g0
(g219
g2
Ntp2081
Rp2082
(dp2083
g14
I00
sg32
I01
sg81
I00
sg15
I00
sbsg35
g2057
sbsS'HcalReLabel'
p2084
g0
(g67
g2
Ntp2085
Rp2086
(dp2087
g14
I00
sg32
I01
sg15
I00
sS'RelabelRules'
p2088
g0
(g67
g2
Ntp2089
Rp2090
(dp2091
g14
I00
sg32
I00
sg15
I00
sS'Eta16'
p2092
g0
(g947
g20
(lp2093
I1
aI1
aI2
aI2
aI2
aI2
aI2
aI2
aI2
aI3
aI3
aI3
aI3
aI3
aI3
aI3
aI3
aI3
aI3
atp2094
Rp2095
(dp2096
g14
I00
sg32
I00
sg15
I00
sbsS'Eta17'
p2097
g0
(g947
g20
(lp2098
I1
aI1
aI2
aI2
aI3
aI3
aI3
aI4
aI4
aI4
aI4
aI4
aI5
aI5
aI5
aI5
aI5
aI5
aI5
atp2099
Rp2100
(dp2101
g14
I00
sg32
I00
sg15
I00
sbsS'CorrectPhi'
p2102
g0
(g219
g2
Ntp2103
Rp2104
(dp2105
g14
I00
sg32
I00
sg81
I00
sg15
I00
sbsg11
(lp2106
g2092
ag2097
aS'Eta1'
p2107
ag2102
asg2107
g0
(g947
g20
(lp2108
I1
aI2
aI2
aI2
aI3
aI3
aI3
aI3
aI3
aI3
aI3
aI3
aI3
aI3
aI3
aI3
aI3
aI3
aI3
atp2109
Rp2110
(dp2111
g14
I00
sg32
I00
sg15
I00
sbsbsg11
(lp2112
g2088
aS'RelabelHits'
p2113
asg34
g2084
sg2113
g0
(g219
g2
Ntp2114
Rp2115
(dp2116
g14
I00
sg32
I00
sg81
I00
sg15
I00
sbsbsg915
g331
sS'trackerTopologyConstants'
p2117
g0
(g7
g2
Ntp2118
Rp2119
(dp2120
g14
I00
sg16
I40
sS'tib_str_int_extStartBit'
p2121
g0
(g144
g2
Ntp2122
Rp2123
(dp2124
g14
I00
sg32
I01
sg81
I10
sg15
I00
sbsS'tib_layerMask'
p2125
g0
(g144
g2
Ntp2126
Rp2127
(dp2128
g14
I00
sg32
I01
sg81
I7
sg15
I00
sbsS'tib_str_fw_bwStartBit'
p2129
g0
(g144
g2
Ntp2130
Rp2131
(dp2132
g14
I00
sg32
I01
sg81
I12
sg15
I00
sbsS'pxf_bladeMask'
p2133
g0
(g144
g2
Ntp2134
Rp2135
(dp2136
g14
I00
sg32
I01
sg81
I63
sg15
I00
sbsS'pxb_moduleStartBit'
p2137
g0
(g144
g2
Ntp2138
Rp2139
(dp2140
g14
I00
sg32
I01
sg81
I2
sg15
I00
sbsS'pxb_ladderStartBit'
p2141
g0
(g144
g2
Ntp2142
Rp2143
(dp2144
g14
I00
sg32
I01
sg81
I8
sg15
I00
sbsS'pxb_layerStartBit'
p2145
g0
(g144
g2
Ntp2146
Rp2147
(dp2148
g14
I00
sg32
I01
sg81
I16
sg15
I00
sbsS'pxb_layerMask'
p2149
g0
(g144
g2
Ntp2150
Rp2151
(dp2152
g14
I00
sg32
I01
sg81
I15
sg15
I00
sbsS'tec_wheelStartBit'
p2153
g0
(g144
g2
Ntp2154
Rp2155
(dp2156
g14
I00
sg32
I01
sg81
I14
sg15
I00
sbsS'tib_str_fw_bwMask'
p2157
g0
(g144
g2
Ntp2158
Rp2159
(dp2160
g14
I00
sg32
I01
sg81
I3
sg15
I00
sbsS'tec_ringStartBit'
p2161
g0
(g144
g2
Ntp2162
Rp2163
(dp2164
g14
I00
sg32
I01
sg81
I5
sg15
I00
sbsg35
S'TrackerTopologyEP'
p2165
sS'tib_moduleStartBit'
p2166
g0
(g144
g2
Ntp2167
Rp2168
(dp2169
g14
I00
sg32
I01
sg81
I2
sg15
I00
sbsg11
(lp2170
S'tob_rodStartBit'
p2171
ag2121
ag2125
ag2133
aS'appendToDataLabel'
p2172
ag2141
ag2145
ag2153
aS'tib_str_int_extMask'
p2173
ag2161
ag2166
aS'tib_sterMask'
p2174
aS'tid_sideStartBit'
p2175
aS'tid_module_fw_bwStartBit'
p2176
aS'tid_ringMask'
p2177
aS'tob_sterMask'
p2178
aS'tec_petal_fw_bwStartBit'
p2179
aS'tec_ringMask'
p2180
aS'tib_strMask'
p2181
aS'tec_sterMask'
p2182
aS'tec_wheelMask'
p2183
aS'tec_sideStartBit'
p2184
aS'pxb_moduleMask'
p2185
aS'pxf_panelStartBit'
p2186
aS'tid_sideMask'
p2187
aS'tob_moduleMask'
p2188
aS'tid_ringStartBit'
p2189
aS'pxf_sideMask'
p2190
ag2137
aS'pxf_diskStartBit'
p2191
ag2157
aS'tec_moduleMask'
p2192
aS'tid_sterMask'
p2193
aS'tob_rod_fw_bwMask'
p2194
aS'tob_layerStartBit'
p2195
aS'tec_petal_fw_bwMask'
p2196
aS'tib_strStartBit'
p2197
aS'tec_sterStartBit'
p2198
aS'tid_moduleMask'
p2199
aS'tib_sterStartBit'
p2200
aS'tid_sterStartBit'
p2201
aS'pxf_moduleStartBit'
p2202
aS'pxf_diskMask'
p2203
aS'tob_moduleStartBit'
p2204
aS'tid_wheelStartBit'
p2205
aS'tob_layerMask'
p2206
aS'tid_module_fw_bwMask'
p2207
aS'tob_rod_fw_bwStartBit'
p2208
aS'tec_petalMask'
p2209
aS'pxb_ladderMask'
p2210
aS'tec_moduleStartBit'
p2211
aS'tob_rodMask'
p2212
aS'tec_sideMask'
p2213
aS'pxf_sideStartBit'
p2214
ag2149
aS'tib_layerStartBit'
p2215
aS'pxf_panelMask'
p2216
aS'tib_moduleMask'
p2217
aS'pxf_bladeStartBit'
p2218
aS'tid_wheelMask'
p2219
aS'tob_sterStartBit'
p2220
aS'tid_moduleStartBit'
p2221
aS'tec_petalStartBit'
p2222
ag2129
aS'pxf_moduleMask'
p2223
asg2175
g0
(g144
g2
Ntp2224
Rp2225
(dp2226
g14
I00
sg32
I01
sg81
I13
sg15
I00
sbsg2205
g0
(g144
g2
Ntp2227
Rp2228
(dp2229
g14
I00
sg32
I01
sg81
I11
sg15
I00
sbsg2177
g0
(g144
g2
Ntp2230
Rp2231
(dp2232
g14
I00
sg32
I01
sg81
I3
sg15
I00
sbsg2190
g0
(g144
g2
Ntp2233
Rp2234
(dp2235
g14
I00
sg32
I01
sg81
I3
sg15
I00
sbsg2179
g0
(g144
g2
Ntp2236
Rp2237
(dp2238
g14
I00
sg32
I01
sg81
I12
sg15
I00
sbsg2180
g0
(g144
g2
Ntp2239
Rp2240
(dp2241
g14
I00
sg32
I01
sg81
I7
sg15
I00
sbsg2181
g0
(g144
g2
Ntp2242
Rp2243
(dp2244
g14
I00
sg32
I01
sg81
I63
sg15
I00
sbsg2182
g0
(g144
g2
Ntp2245
Rp2246
(dp2247
g14
I00
sg32
I01
sg81
I3
sg15
I00
sbsg2184
g0
(g144
g2
Ntp2248
Rp2249
(dp2250
g14
I00
sg32
I01
sg81
I18
sg15
I00
sbsg2185
g0
(g144
g2
Ntp2251
Rp2252
(dp2253
g14
I00
sg32
I01
sg81
I63
sg15
I00
sbsg2193
g0
(g144
g2
Ntp2254
Rp2255
(dp2256
g14
I00
sg32
I01
sg81
I3
sg15
I00
sbsg2186
g0
(g144
g2
Ntp2257
Rp2258
(dp2259
g14
I00
sg32
I01
sg81
I8
sg15
I00
sbsg2187
g0
(g144
g2
Ntp2260
Rp2261
(dp2262
g14
I00
sg32
I01
sg81
I3
sg15
I00
sbsg2188
g0
(g144
g2
Ntp2263
Rp2264
(dp2265
g14
I00
sg32
I01
sg81
I7
sg15
I00
sbsg2189
g0
(g144
g2
Ntp2266
Rp2267
(dp2268
g14
I00
sg32
I01
sg81
I9
sg15
I00
sbsg2174
g0
(g144
g2
Ntp2269
Rp2270
(dp2271
g14
I00
sg32
I01
sg81
I3
sg15
I00
sbsg2172
g0
(g77
g2
Ntp2272
Rp2273
(dp2274
g14
I00
sg32
I01
sg81
g100
sg15
I00
sbsg2191
g0
(g144
g2
Ntp2275
Rp2276
(dp2277
g14
I00
sg32
I01
sg81
I16
sg15
I00
sbsg2173
g0
(g144
g2
Ntp2278
Rp2279
(dp2280
g14
I00
sg32
I01
sg81
I3
sg15
I00
sbsg2192
g0
(g144
g2
Ntp2281
Rp2282
(dp2283
g14
I00
sg32
I01
sg81
I7
sg15
I00
sbsg2178
g0
(g144
g2
Ntp2284
Rp2285
(dp2286
g14
I00
sg32
I01
sg81
I3
sg15
I00
sbsg2194
g0
(g144
g2
Ntp2287
Rp2288
(dp2289
g14
I00
sg32
I01
sg81
I3
sg15
I00
sbsg2195
g0
(g144
g2
Ntp2290
Rp2291
(dp2292
g14
I00
sg32
I01
sg81
I14
sg15
I00
sbsg2196
g0
(g144
g2
Ntp2293
Rp2294
(dp2295
g14
I00
sg32
I01
sg81
I3
sg15
I00
sbsg2215
g0
(g144
g2
Ntp2296
Rp2297
(dp2298
g14
I00
sg32
I01
sg81
I14
sg15
I00
sbsg2198
g0
(g144
g2
Ntp2299
Rp2300
(dp2301
g14
I00
sg32
I01
sg81
I0
sg15
I00
sbsg2199
g0
(g144
g2
Ntp2302
Rp2303
(dp2304
g14
I00
sg32
I01
sg81
I31
sg15
I00
sbsg2200
g0
(g144
g2
Ntp2305
Rp2306
(dp2307
g14
I00
sg32
I01
sg81
I0
sg15
I00
sbsg17
g18
sg2201
g0
(g144
g2
Ntp2308
Rp2309
(dp2310
g14
I00
sg32
I01
sg81
I0
sg15
I00
sbsg2202
g0
(g144
g2
Ntp2311
Rp2312
(dp2313
g14
I00
sg32
I01
sg81
I2
sg15
I00
sbsg2203
g0
(g144
g2
Ntp2314
Rp2315
(dp2316
g14
I00
sg32
I01
sg81
I15
sg15
I00
sbsg2214
g0
(g144
g2
Ntp2317
Rp2318
(dp2319
g14
I00
sg32
I01
sg81
I23
sg15
I00
sbsg2176
g0
(g144
g2
Ntp2320
Rp2321
(dp2322
g14
I00
sg32
I01
sg81
I7
sg15
I00
sbsg2206
g0
(g144
g2
Ntp2323
Rp2324
(dp2325
g14
I00
sg32
I01
sg81
I7
sg15
I00
sbsg2207
g0
(g144
g2
Ntp2326
Rp2327
(dp2328
g14
I00
sg32
I01
sg81
I3
sg15
I00
sbsg2208
g0
(g144
g2
Ntp2329
Rp2330
(dp2331
g14
I00
sg32
I01
sg81
I12
sg15
I00
sbsg2209
g0
(g144
g2
Ntp2332
Rp2333
(dp2334
g14
I00
sg32
I01
sg81
I15
sg15
I00
sbsg2210
g0
(g144
g2
Ntp2335
Rp2336
(dp2337
g14
I00
sg32
I01
sg81
I255
sg15
I00
sbsg2211
g0
(g144
g2
Ntp2338
Rp2339
(dp2340
g14
I00
sg32
I01
sg81
I2
sg15
I00
sbsg15
I00
sg2212
g0
(g144
g2
Ntp2341
Rp2342
(dp2343
g14
I00
sg32
I01
sg81
I127
sg15
I00
sbsg2197
g0
(g144
g2
Ntp2344
Rp2345
(dp2346
g14
I00
sg32
I01
sg81
I4
sg15
I00
sbsg2183
g0
(g144
g2
Ntp2347
Rp2348
(dp2349
g14
I00
sg32
I01
sg81
I15
sg15
I00
sbsg2171
g0
(g144
g2
Ntp2350
Rp2351
(dp2352
g14
I00
sg32
I01
sg81
I5
sg15
I00
sbsg2216
g0
(g144
g2
Ntp2353
Rp2354
(dp2355
g14
I00
sg32
I01
sg81
I3
sg15
I00
sbsg2217
g0
(g144
g2
Ntp2356
Rp2357
(dp2358
g14
I00
sg32
I01
sg81
I3
sg15
I00
sbsg2218
g0
(g144
g2
Ntp2359
Rp2360
(dp2361
g14
I00
sg32
I01
sg81
I10
sg15
I00
sbsg2219
g0
(g144
g2
Ntp2362
Rp2363
(dp2364
g14
I00
sg32
I01
sg81
I3
sg15
I00
sbsg2220
g0
(g144
g2
Ntp2365
Rp2366
(dp2367
g14
I00
sg32
I01
sg81
I0
sg15
I00
sbsg2221
g0
(g144
g2
Ntp2368
Rp2369
(dp2370
g14
I00
sg32
I01
sg81
I2
sg15
I00
sbsg2222
g0
(g144
g2
Ntp2371
Rp2372
(dp2373
g14
I00
sg32
I01
sg81
I8
sg15
I00
sbsg2204
g0
(g144
g2
Ntp2374
Rp2375
(dp2376
g14
I00
sg32
I01
sg81
I2
sg15
I00
sbsg34
g2117
sg2223
g0
(g144
g2
Ntp2377
Rp2378
(dp2379
g14
I00
sg32
I01
sg81
I63
sg15
I00
sbsg2213
g0
(g144
g2
Ntp2380
Rp2381
(dp2382
g14
I00
sg32
I01
sg81
I3
sg15
I00
sbsbsS'_Process__InExtendCall'
p2383
I00
sS'_Process__producers'
p2384
(dp2385
g111
g59
sS'pfClusterMet'
p2386
g0
(g57
g2
Ntp2387
Rp2388
(dp2389
g11
(lp2390
S'globalThreshold'
p2391
ag92
aS'alias'
p2392
asg14
I00
sg15
I00
sg92
g0
(g93
g2
Ntp2393
Rp2394
(dp2395
g14
I00
sg32
I01
sg15
I00
sg97
g2032
sg99
g100
sg101
g100
sbsg17
S'/cvmfs/cms.cern.ch/slc6_amd64_gcc491/cms/cmssw-patch/CMSSW_7_4_4_patch2/python/RecoMET/METProducers/PFClusterMET_cfi.py'
p2396
sg2392
g0
(g77
g2
Ntp2397
Rp2398
(dp2399
g14
I00
sg32
I01
sg81
g2386
sg15
I00
sbsg16
I11
sg34
g2386
sg2391
g0
(g85
g2
Ntp2400
Rp2401
(dp2402
g14
I00
sg32
I01
sg81
F0.0
sg15
I00
sbsg35
S'PFClusterMETProducer'
p2403
sbsg1602
g1387
sg907
g869
sg283
g122
sg2011
g2002
sg2032
g2024
sg2000
g1991
sg442
g338
sg2022
g2013
sg1135
g1024
sg1345
g1152
sg1925
g1777
sg1988
g1976
sg1768
g1709
sS'condMETSelector'
p2404
g0
(g57
g2
Ntp2405
Rp2406
(dp2407
g11
(lp2408
S'cut'
p2409
aS'decay'
p2410
asg14
I00
sg2409
g0
(g77
g2
Ntp2411
Rp2412
(dp2413
g14
I00
sg32
I01
sg81
S'(daughter(0).pt > 50) || (daughter(1).pt > 50)'
p2414
sg15
I00
sbsg15
I00
sg2410
g0
(g77
g2
Ntp2415
Rp2416
(dp2417
g14
I00
sg32
I01
sg81
S'caloMet pfClusterMet'
p2418
sg15
I00
sbsg17
g1987
sg16
I119
sg34
g2404
sg35
S'CandViewShallowCloneCombiner'
p2419
sbsS'HBHENoiseFilterResultProducer'
p2420
g0
(g57
g2
Ntp2421
Rp2422
(dp2423
g11
(lp2424
S'IgnoreTS4TS5ifJetInLowBVRegion'
p2425
aS'defaultDecision'
p2426
aS'minHPDNoOtherHits'
p2427
aS'noiselabel'
p2428
aS'minZeros'
p2429
aS'minHPDHits'
p2430
asg14
I00
sg2425
g0
(g219
g2
Ntp2431
Rp2432
(dp2433
g14
I00
sg32
I01
sg81
I01
sg15
I00
sbsg15
I00
sg2426
g0
(g77
g2
Ntp2434
Rp2435
(dp2436
g14
I00
sg32
I01
sg81
S'HBHENoiseFilterResultRun1'
p2437
sg15
I00
sbsg16
I10
sg17
S'/cvmfs/cms.cern.ch/slc6_amd64_gcc491/cms/cmssw-patch/CMSSW_7_4_4_patch2/python/CommonTools/RecoAlgos/HBHENoiseFilterResultProducer_cfi.py'
p2438
sg2427
g0
(g166
g2
Ntp2439
Rp2440
(dp2441
g14
I00
sg32
I01
sg81
I10
sg15
I00
sbsg2428
g0
(g93
g2
Ntp2442
Rp2443
(dp2444
g14
I00
sg32
I01
sg15
I00
sg97
S'hcalnoise'
p2445
sg99
g100
sg101
g100
sbsg2429
g0
(g166
g2
Ntp2446
Rp2447
(dp2448
g14
I00
sg32
I01
sg81
I10
sg15
I00
sbsg34
g2420
sg2430
g0
(g166
g2
Ntp2449
Rp2450
(dp2451
g14
I00
sg32
I01
sg81
I17
sg15
I00
sbsg35
g2420
sbsg1698
g1644
sS'particleFlowClusterHBHETimeSelected'
p2452
g0
(g57
g2
Ntp2453
Rp2454
(dp2455
g11
(lp2456
g92
ag1062
asg14
I00
sg15
I00
sg92
g0
(g93
g2
Ntp2457
Rp2458
(dp2459
g14
I00
sg32
I01
sg15
I00
sg97
g1345
sg99
g100
sg101
g100
sbsg17
S'/cvmfs/cms.cern.ch/slc6_amd64_gcc491/cms/cmssw-patch/CMSSW_7_4_4_patch2/python/RecoParticleFlow/PFClusterProducer/particleFlowClusterHBHETimeSelected_cfi.py'
p2460
sg16
I198
sg1062
g0
(g65
g20
(lp2461
g0
(g67
g2
Ntp2462
Rp2463
(dp2464
g14
I00
sg32
I01
sg15
I00
sS'minTime'
p2465
g0
(g85
g2
Ntp2466
Rp2467
(dp2468
g14
I00
sg32
I01
sg81
F-30.0
sg15
I00
sbsS'minEnergy'
p2469
g0
(g85
g2
Ntp2470
Rp2471
(dp2472
g14
I00
sg32
I01
sg81
F0.0
sg15
I00
sbsS'maxEnergy'
p2473
g0
(g85
g2
Ntp2474
Rp2475
(dp2476
g14
I00
sg32
I01
sg81
F1.0
sg15
I00
sbsg1067
g0
(g85
g2
Ntp2477
Rp2478
(dp2479
g14
I00
sg32
I01
sg81
F1.0
sg15
I00
sbsg11
(lp2480
g2465
ag2469
ag2473
ag1067
aS'maxTime'
p2481
ag448
asg2481
g0
(g85
g2
Ntp2482
Rp2483
(dp2484
g14
I00
sg32
I01
sg81
F30.0
sg15
I00
sbsg448
g0
(g219
g2
Ntp2485
Rp2486
(dp2487
g14
I00
sg32
I01
sg81
I00
sg15
I00
sbsbag0
(g67
g2
Ntp2488
Rp2489
(dp2490
g14
I00
sg32
I01
sg15
I00
sg2465
g0
(g85
g2
Ntp2491
Rp2492
(dp2493
g14
I00
sg32
I01
sg81
F-30.0
sg15
I00
sbsg2469
g0
(g85
g2
Ntp2494
Rp2495
(dp2496
g14
I00
sg32
I01
sg81
F0.0
sg15
I00
sbsg2473
g0
(g85
g2
Ntp2497
Rp2498
(dp2499
g14
I00
sg32
I01
sg81
F1.0
sg15
I00
sbsg1067
g0
(g85
g2
Ntp2500
Rp2501
(dp2502
g14
I00
sg32
I01
sg81
F1.0
sg15
I00
sbsg11
(lp2503
g2465
ag2469
ag2473
ag1067
ag2481
ag448
asg2481
g0
(g85
g2
Ntp2504
Rp2505
(dp2506
g14
I00
sg32
I01
sg81
F30.0
sg15
I00
sbsg448
g0
(g219
g2
Ntp2507
Rp2508
(dp2509
g14
I00
sg32
I01
sg81
I01
sg15
I00
sbsbag0
(g67
g2
Ntp2510
Rp2511
(dp2512
g14
I00
sg32
I01
sg15
I00
sg2465
g0
(g85
g2
Ntp2513
Rp2514
(dp2515
g14
I00
sg32
I01
sg81
F-30.0
sg15
I00
sbsg2469
g0
(g85
g2
Ntp2516
Rp2517
(dp2518
g14
I00
sg32
I01
sg81
F0.0
sg15
I00
sbsg2473
g0
(g85
g2
Ntp2519
Rp2520
(dp2521
g14
I00
sg32
I01
sg81
F1.0
sg15
I00
sbsg1067
g0
(g85
g2
Ntp2522
Rp2523
(dp2524
g14
I00
sg32
I01
sg81
F2.0
sg15
I00
sbsg11
(lp2525
g2465
ag2469
ag2473
ag1067
ag2481
ag448
asg2481
g0
(g85
g2
Ntp2526
Rp2527
(dp2528
g14
I00
sg32
I01
sg81
F30.0
sg15
I00
sbsg448
g0
(g219
g2
Ntp2529
Rp2530
(dp2531
g14
I00
sg32
I01
sg81
I00
sg15
I00
sbsbag0
(g67
g2
Ntp2532
Rp2533
(dp2534
g14
I00
sg32
I01
sg15
I00
sg2465
g0
(g85
g2
Ntp2535
Rp2536
(dp2537
g14
I00
sg32
I01
sg81
F-30.0
sg15
I00
sbsg2469
g0
(g85
g2
Ntp2538
Rp2539
(dp2540
g14
I00
sg32
I01
sg81
F0.0
sg15
I00
sbsg2473
g0
(g85
g2
Ntp2541
Rp2542
(dp2543
g14
I00
sg32
I01
sg81
F1.0
sg15
I00
sbsg1067
g0
(g85
g2
Ntp2544
Rp2545
(dp2546
g14
I00
sg32
I01
sg81
F2.0
sg15
I00
sbsg11
(lp2547
g2465
ag2469
ag2473
ag1067
ag2481
ag448
asg2481
g0
(g85
g2
Ntp2548
Rp2549
(dp2550
g14
I00
sg32
I01
sg81
F30.0
sg15
I00
sbsg448
g0
(g219
g2
Ntp2551
Rp2552
(dp2553
g14
I00
sg32
I01
sg81
I01
sg15
I00
sbsbag0
(g67
g2
Ntp2554
Rp2555
(dp2556
g14
I00
sg32
I01
sg15
I00
sg2465
g0
(g85
g2
Ntp2557
Rp2558
(dp2559
g14
I00
sg32
I01
sg81
F-30.0
sg15
I00
sbsg2469
g0
(g85
g2
Ntp2560
Rp2561
(dp2562
g14
I00
sg32
I01
sg81
F0.0
sg15
I00
sbsg2473
g0
(g85
g2
Ntp2563
Rp2564
(dp2565
g14
I00
sg32
I01
sg81
F1.0
sg15
I00
sbsg1067
g0
(g85
g2
Ntp2566
Rp2567
(dp2568
g14
I00
sg32
I01
sg81
F3.0
sg15
I00
sbsg11
(lp2569
g2465
ag2469
ag2473
ag1067
ag2481
ag448
asg2481
g0
(g85
g2
Ntp2570
Rp2571
(dp2572
g14
I00
sg32
I01
sg81
F30.0
sg15
I00
sbsg448
g0
(g219
g2
Ntp2573
Rp2574
(dp2575
g14
I00
sg32
I01
sg81
I00
sg15
I00
sbsbag0
(g67
g2
Ntp2576
Rp2577
(dp2578
g14
I00
sg32
I01
sg15
I00
sg2465
g0
(g85
g2
Ntp2579
Rp2580
(dp2581
g14
I00
sg32
I01
sg81
F-30.0
sg15
I00
sbsg2469
g0
(g85
g2
Ntp2582
Rp2583
(dp2584
g14
I00
sg32
I01
sg81
F0.0
sg15
I00
sbsg2473
g0
(g85
g2
Ntp2585
Rp2586
(dp2587
g14
I00
sg32
I01
sg81
F1.0
sg15
I00
sbsg1067
g0
(g85
g2
Ntp2588
Rp2589
(dp2590
g14
I00
sg32
I01
sg81
F3.0
sg15
I00
sbsg11
(lp2591
g2465
ag2469
ag2473
ag1067
ag2481
ag448
asg2481
g0
(g85
g2
Ntp2592
Rp2593
(dp2594
g14
I00
sg32
I01
sg81
F30.0
sg15
I00
sbsg448
g0
(g219
g2
Ntp2595
Rp2596
(dp2597
g14
I00
sg32
I01
sg81
I01
sg15
I00
sbsbag0
(g67
g2
Ntp2598
Rp2599
(dp2600
g14
I00
sg32
I01
sg15
I00
sg2465
g0
(g85
g2
Ntp2601
Rp2602
(dp2603
g14
I00
sg32
I01
sg81
F-20.0
sg15
I00
sbsg2469
g0
(g85
g2
Ntp2604
Rp2605
(dp2606
g14
I00
sg32
I01
sg81
F1.0
sg15
I00
sbsg2473
g0
(g85
g2
Ntp2607
Rp2608
(dp2609
g14
I00
sg32
I01
sg81
F2.0
sg15
I00
sbsg1067
g0
(g85
g2
Ntp2610
Rp2611
(dp2612
g14
I00
sg32
I01
sg81
F1.0
sg15
I00
sbsg11
(lp2613
g2465
ag2469
ag2473
ag1067
ag2481
ag448
asg2481
g0
(g85
g2
Ntp2614
Rp2615
(dp2616
g14
I00
sg32
I01
sg81
F15.0
sg15
I00
sbsg448
g0
(g219
g2
Ntp2617
Rp2618
(dp2619
g14
I00
sg32
I01
sg81
I00
sg15
I00
sbsbag0
(g67
g2
Ntp2620
Rp2621
(dp2622
g14
I00
sg32
I01
sg15
I00
sg2465
g0
(g85
g2
Ntp2623
Rp2624
(dp2625
g14
I00
sg32
I01
sg81
F-20.0
sg15
I00
sbsg2469
g0
(g85
g2
Ntp2626
Rp2627
(dp2628
g14
I00
sg32
I01
sg81
F1.0
sg15
I00
sbsg2473
g0
(g85
g2
Ntp2629
Rp2630
(dp2631
g14
I00
sg32
I01
sg81
F2.0
sg15
I00
sbsg1067
g0
(g85
g2
Ntp2632
Rp2633
(dp2634
g14
I00
sg32
I01
sg81
F1.0
sg15
I00
sbsg11
(lp2635
g2465
ag2469
ag2473
ag1067
ag2481
ag448
asg2481
g0
(g85
g2
Ntp2636
Rp2637
(dp2638
g14
I00
sg32
I01
sg81
F16.0
sg15
I00
sbsg448
g0
(g219
g2
Ntp2639
Rp2640
(dp2641
g14
I00
sg32
I01
sg81
I01
sg15
I00
sbsbag0
(g67
g2
Ntp2642
Rp2643
(dp2644
g14
I00
sg32
I01
sg15
I00
sg2465
g0
(g85
g2
Ntp2645
Rp2646
(dp2647
g14
I00
sg32
I01
sg81
F-20.0
sg15
I00
sbsg2469
g0
(g85
g2
Ntp2648
Rp2649
(dp2650
g14
I00
sg32
I01
sg81
F1.0
sg15
I00
sbsg2473
g0
(g85
g2
Ntp2651
Rp2652
(dp2653
g14
I00
sg32
I01
sg81
F2.0
sg15
I00
sbsg1067
g0
(g85
g2
Ntp2654
Rp2655
(dp2656
g14
I00
sg32
I01
sg81
F2.0
sg15
I00
sbsg11
(lp2657
g2465
ag2469
ag2473
ag1067
ag2481
ag448
asg2481
g0
(g85
g2
Ntp2658
Rp2659
(dp2660
g14
I00
sg32
I01
sg81
F15.0
sg15
I00
sbsg448
g0
(g219
g2
Ntp2661
Rp2662
(dp2663
g14
I00
sg32
I01
sg81
I00
sg15
I00
sbsbag0
(g67
g2
Ntp2664
Rp2665
(dp2666
g14
I00
sg32
I01
sg15
I00
sg2465
g0
(g85
g2
Ntp2667
Rp2668
(dp2669
g14
I00
sg32
I01
sg81
F-20.0
sg15
I00
sbsg2469
g0
(g85
g2
Ntp2670
Rp2671
(dp2672
g14
I00
sg32
I01
sg81
F1.0
sg15
I00
sbsg2473
g0
(g85
g2
Ntp2673
Rp2674
(dp2675
g14
I00
sg32
I01
sg81
F2.0
sg15
I00
sbsg1067
g0
(g85
g2
Ntp2676
Rp2677
(dp2678
g14
I00
sg32
I01
sg81
F2.0
sg15
I00
sbsg11
(lp2679
g2465
ag2469
ag2473
ag1067
ag2481
ag448
asg2481
g0
(g85
g2
Ntp2680
Rp2681
(dp2682
g14
I00
sg32
I01
sg81
F15.0
sg15
I00
sbsg448
g0
(g219
g2
Ntp2683
Rp2684
(dp2685
g14
I00
sg32
I01
sg81
I01
sg15
I00
sbsbag0
(g67
g2
Ntp2686
Rp2687
(dp2688
g14
I00
sg32
I01
sg15
I00
sg2465
g0
(g85
g2
Ntp2689
Rp2690
(dp2691
g14
I00
sg32
I01
sg81
F-20.0
sg15
I00
sbsg2469
g0
(g85
g2
Ntp2692
Rp2693
(dp2694
g14
I00
sg32
I01
sg81
F1.0
sg15
I00
sbsg2473
g0
(g85
g2
Ntp2695
Rp2696
(dp2697
g14
I00
sg32
I01
sg81
F2.0
sg15
I00
sbsg1067
g0
(g85
g2
Ntp2698
Rp2699
(dp2700
g14
I00
sg32
I01
sg81
F3.0
sg15
I00
sbsg11
(lp2701
g2465
ag2469
ag2473
ag1067
ag2481
ag448
asg2481
g0
(g85
g2
Ntp2702
Rp2703
(dp2704
g14
I00
sg32
I01
sg81
F15.0
sg15
I00
sbsg448
g0
(g219
g2
Ntp2705
Rp2706
(dp2707
g14
I00
sg32
I01
sg81
I00
sg15
I00
sbsbag0
(g67
g2
Ntp2708
Rp2709
(dp2710
g14
I00
sg32
I01
sg15
I00
sg2465
g0
(g85
g2
Ntp2711
Rp2712
(dp2713
g14
I00
sg32
I01
sg81
F-20.0
sg15
I00
sbsg2469
g0
(g85
g2
Ntp2714
Rp2715
(dp2716
g14
I00
sg32
I01
sg81
F1.0
sg15
I00
sbsg2473
g0
(g85
g2
Ntp2717
Rp2718
(dp2719
g14
I00
sg32
I01
sg81
F2.0
sg15
I00
sbsg1067
g0
(g85
g2
Ntp2720
Rp2721
(dp2722
g14
I00
sg32
I01
sg81
F3.0
sg15
I00
sbsg11
(lp2723
g2465
ag2469
ag2473
ag1067
ag2481
ag448
asg2481
g0
(g85
g2
Ntp2724
Rp2725
(dp2726
g14
I00
sg32
I01
sg81
F15.0
sg15
I00
sbsg448
g0
(g219
g2
Ntp2727
Rp2728
(dp2729
g14
I00
sg32
I01
sg81
I01
sg15
I00
sbsbag0
(g67
g2
Ntp2730
Rp2731
(dp2732
g14
I00
sg32
I01
sg15
I00
sg2465
g0
(g85
g2
Ntp2733
Rp2734
(dp2735
g14
I00
sg32
I01
sg81
F-20.0
sg15
I00
sbsg2469
g0
(g85
g2
Ntp2736
Rp2737
(dp2738
g14
I00
sg32
I01
sg81
F2.0
sg15
I00
sbsg2473
g0
(g85
g2
Ntp2739
Rp2740
(dp2741
g14
I00
sg32
I01
sg81
F5.0
sg15
I00
sbsg1067
g0
(g85
g2
Ntp2742
Rp2743
(dp2744
g14
I00
sg32
I01
sg81
F1.0
sg15
I00
sbsg11
(lp2745
g2465
ag2469
ag2473
ag1067
ag2481
ag448
asg2481
g0
(g85
g2
Ntp2746
Rp2747
(dp2748
g14
I00
sg32
I01
sg81
F25.0
sg15
I00
sbsg448
g0
(g219
g2
Ntp2749
Rp2750
(dp2751
g14
I00
sg32
I01
sg81
I00
sg15
I00
sbsbag0
(g67
g2
Ntp2752
Rp2753
(dp2754
g14
I00
sg32
I01
sg15
I00
sg2465
g0
(g85
g2
Ntp2755
Rp2756
(dp2757
g14
I00
sg32
I01
sg81
F-20.0
sg15
I00
sbsg2469
g0
(g85
g2
Ntp2758
Rp2759
(dp2760
g14
I00
sg32
I01
sg81
F2.0
sg15
I00
sbsg2473
g0
(g85
g2
Ntp2761
Rp2762
(dp2763
g14
I00
sg32
I01
sg81
F5.0
sg15
I00
sbsg1067
g0
(g85
g2
Ntp2764
Rp2765
(dp2766
g14
I00
sg32
I01
sg81
F1.0
sg15
I00
sbsg11
(lp2767
g2465
ag2469
ag2473
ag1067
ag2481
ag448
asg2481
g0
(g85
g2
Ntp2768
Rp2769
(dp2770
g14
I00
sg32
I01
sg81
F25.0
sg15
I00
sbsg448
g0
(g219
g2
Ntp2771
Rp2772
(dp2773
g14
I00
sg32
I01
sg81
I01
sg15
I00
sbsbag0
(g67
g2
Ntp2774
Rp2775
(dp2776
g14
I00
sg32
I01
sg15
I00
sg2465
g0
(g85
g2
Ntp2777
Rp2778
(dp2779
g14
I00
sg32
I01
sg81
F-15.0
sg15
I00
sbsg2469
g0
(g85
g2
Ntp2780
Rp2781
(dp2782
g14
I00
sg32
I01
sg81
F2.0
sg15
I00
sbsg2473
g0
(g85
g2
Ntp2783
Rp2784
(dp2785
g14
I00
sg32
I01
sg81
F5.0
sg15
I00
sbsg1067
g0
(g85
g2
Ntp2786
Rp2787
(dp2788
g14
I00
sg32
I01
sg81
F2.0
sg15
I00
sbsg11
(lp2789
g2465
ag2469
ag2473
ag1067
ag2481
ag448
asg2481
g0
(g85
g2
Ntp2790
Rp2791
(dp2792
g14
I00
sg32
I01
sg81
F25.0
sg15
I00
sbsg448
g0
(g219
g2
Ntp2793
Rp2794
(dp2795
g14
I00
sg32
I01
sg81
I00
sg15
I00
sbsbag0
(g67
g2
Ntp2796
Rp2797
(dp2798
g14
I00
sg32
I01
sg15
I00
sg2465
g0
(g85
g2
Ntp2799
Rp2800
(dp2801
g14
I00
sg32
I01
sg81
F-15.0
sg15
I00
sbsg2469
g0
(g85
g2
Ntp2802
Rp2803
(dp2804
g14
I00
sg32
I01
sg81
F2.0
sg15
I00
sbsg2473
g0
(g85
g2
Ntp2805
Rp2806
(dp2807
g14
I00
sg32
I01
sg81
F5.0
sg15
I00
sbsg1067
g0
(g85
g2
Ntp2808
Rp2809
(dp2810
g14
I00
sg32
I01
sg81
F2.0
sg15
I00
sbsg11
(lp2811
g2465
ag2469
ag2473
ag1067
ag2481
ag448
asg2481
g0
(g85
g2
Ntp2812
Rp2813
(dp2814
g14
I00
sg32
I01
sg81
F25.0
sg15
I00
sbsg448
g0
(g219
g2
Ntp2815
Rp2816
(dp2817
g14
I00
sg32
I01
sg81
I01
sg15
I00
sbsbag0
(g67
g2
Ntp2818
Rp2819
(dp2820
g14
I00
sg32
I01
sg15
I00
sg2465
g0
(g85
g2
Ntp2821
Rp2822
(dp2823
g14
I00
sg32
I01
sg81
F-15.0
sg15
I00
sbsg2469
g0
(g85
g2
Ntp2824
Rp2825
(dp2826
g14
I00
sg32
I01
sg81
F2.0
sg15
I00
sbsg2473
g0
(g85
g2
Ntp2827
Rp2828
(dp2829
g14
I00
sg32
I01
sg81
F5.0
sg15
I00
sbsg1067
g0
(g85
g2
Ntp2830
Rp2831
(dp2832
g14
I00
sg32
I01
sg81
F3.0
sg15
I00
sbsg11
(lp2833
g2465
ag2469
ag2473
ag1067
ag2481
ag448
asg2481
g0
(g85
g2
Ntp2834
Rp2835
(dp2836
g14
I00
sg32
I01
sg81
F25.0
sg15
I00
sbsg448
g0
(g219
g2
Ntp2837
Rp2838
(dp2839
g14
I00
sg32
I01
sg81
I00
sg15
I00
sbsbag0
(g67
g2
Ntp2840
Rp2841
(dp2842
g14
I00
sg32
I01
sg15
I00
sg2465
g0
(g85
g2
Ntp2843
Rp2844
(dp2845
g14
I00
sg32
I01
sg81
F-15.0
sg15
I00
sbsg2469
g0
(g85
g2
Ntp2846
Rp2847
(dp2848
g14
I00
sg32
I01
sg81
F2.0
sg15
I00
sbsg2473
g0
(g85
g2
Ntp2849
Rp2850
(dp2851
g14
I00
sg32
I01
sg81
F5.0
sg15
I00
sbsg1067
g0
(g85
g2
Ntp2852
Rp2853
(dp2854
g14
I00
sg32
I01
sg81
F3.0
sg15
I00
sbsg11
(lp2855
g2465
ag2469
ag2473
ag1067
ag2481
ag448
asg2481
g0
(g85
g2
Ntp2856
Rp2857
(dp2858
g14
I00
sg32
I01
sg81
F25.0
sg15
I00
sbsg448
g0
(g219
g2
Ntp2859
Rp2860
(dp2861
g14
I00
sg32
I01
sg81
I01
sg15
I00
sbsbag0
(g67
g2
Ntp2862
Rp2863
(dp2864
g14
I00
sg32
I01
sg15
I00
sg2465
g0
(g85
g2
Ntp2865
Rp2866
(dp2867
g14
I00
sg32
I01
sg81
I-5
sg15
I00
sbsg2469
g0
(g85
g2
Ntp2868
Rp2869
(dp2870
g14
I00
sg32
I01
sg81
F5.0
sg15
I00
sbsg2473
g0
(g85
g2
Ntp2871
Rp2872
(dp2873
g14
I00
sg32
I01
sg81
F9999999.0
sg15
I00
sbsg1067
g0
(g85
g2
Ntp2874
Rp2875
(dp2876
g14
I00
sg32
I01
sg81
F1.0
sg15
I00
sbsg11
(lp2877
g2465
ag2469
ag2473
ag1067
ag2481
ag448
asg2481
g0
(g85
g2
Ntp2878
Rp2879
(dp2880
g14
I00
sg32
I01
sg81
F20.0
sg15
I00
sbsg448
g0
(g219
g2
Ntp2881
Rp2882
(dp2883
g14
I00
sg32
I01
sg81
I00
sg15
I00
sbsbag0
(g67
g2
Ntp2884
Rp2885
(dp2886
g14
I00
sg32
I01
sg15
I00
sg2465
g0
(g85
g2
Ntp2887
Rp2888
(dp2889
g14
I00
sg32
I01
sg81
I-5
sg15
I00
sbsg2469
g0
(g85
g2
Ntp2890
Rp2891
(dp2892
g14
I00
sg32
I01
sg81
F5.0
sg15
I00
sbsg2473
g0
(g85
g2
Ntp2893
Rp2894
(dp2895
g14
I00
sg32
I01
sg81
F9999999.0
sg15
I00
sbsg1067
g0
(g85
g2
Ntp2896
Rp2897
(dp2898
g14
I00
sg32
I01
sg81
F1.0
sg15
I00
sbsg11
(lp2899
g2465
ag2469
ag2473
ag1067
ag2481
ag448
asg2481
g0
(g85
g2
Ntp2900
Rp2901
(dp2902
g14
I00
sg32
I01
sg81
F20.0
sg15
I00
sbsg448
g0
(g219
g2
Ntp2903
Rp2904
(dp2905
g14
I00
sg32
I01
sg81
I01
sg15
I00
sbsbag0
(g67
g2
Ntp2906
Rp2907
(dp2908
g14
I00
sg32
I01
sg15
I00
sg2465
g0
(g85
g2
Ntp2909
Rp2910
(dp2911
g14
I00
sg32
I01
sg81
I-5
sg15
I00
sbsg2469
g0
(g85
g2
Ntp2912
Rp2913
(dp2914
g14
I00
sg32
I01
sg81
F5.0
sg15
I00
sbsg2473
g0
(g85
g2
Ntp2915
Rp2916
(dp2917
g14
I00
sg32
I01
sg81
F9999999.0
sg15
I00
sbsg1067
g0
(g85
g2
Ntp2918
Rp2919
(dp2920
g14
I00
sg32
I01
sg81
F2.0
sg15
I00
sbsg11
(lp2921
g2465
ag2469
ag2473
ag1067
ag2481
ag448
asg2481
g0
(g85
g2
Ntp2922
Rp2923
(dp2924
g14
I00
sg32
I01
sg81
F20.0
sg15
I00
sbsg448
g0
(g219
g2
Ntp2925
Rp2926
(dp2927
g14
I00
sg32
I01
sg81
I00
sg15
I00
sbsbag0
(g67
g2
Ntp2928
Rp2929
(dp2930
g14
I00
sg32
I01
sg15
I00
sg2465
g0
(g85
g2
Ntp2931
Rp2932
(dp2933
g14
I00
sg32
I01
sg81
I-5
sg15
I00
sbsg2469
g0
(g85
g2
Ntp2934
Rp2935
(dp2936
g14
I00
sg32
I01
sg81
F5.0
sg15
I00
sbsg2473
g0
(g85
g2
Ntp2937
Rp2938
(dp2939
g14
I00
sg32
I01
sg81
F9999999.0
sg15
I00
sbsg1067
g0
(g85
g2
Ntp2940
Rp2941
(dp2942
g14
I00
sg32
I01
sg81
F2.0
sg15
I00
sbsg11
(lp2943
g2465
ag2469
ag2473
ag1067
ag2481
ag448
asg2481
g0
(g85
g2
Ntp2944
Rp2945
(dp2946
g14
I00
sg32
I01
sg81
F20.0
sg15
I00
sbsg448
g0
(g219
g2
Ntp2947
Rp2948
(dp2949
g14
I00
sg32
I01
sg81
I01
sg15
I00
sbsbag0
(g67
g2
Ntp2950
Rp2951
(dp2952
g14
I00
sg32
I01
sg15
I00
sg2465
g0
(g85
g2
Ntp2953
Rp2954
(dp2955
g14
I00
sg32
I01
sg81
I-5
sg15
I00
sbsg2469
g0
(g85
g2
Ntp2956
Rp2957
(dp2958
g14
I00
sg32
I01
sg81
F5.0
sg15
I00
sbsg2473
g0
(g85
g2
Ntp2959
Rp2960
(dp2961
g14
I00
sg32
I01
sg81
F9999999.0
sg15
I00
sbsg1067
g0
(g85
g2
Ntp2962
Rp2963
(dp2964
g14
I00
sg32
I01
sg81
F3.0
sg15
I00
sbsg11
(lp2965
g2465
ag2469
ag2473
ag1067
ag2481
ag448
asg2481
g0
(g85
g2
Ntp2966
Rp2967
(dp2968
g14
I00
sg32
I01
sg81
F20.0
sg15
I00
sbsg448
g0
(g219
g2
Ntp2969
Rp2970
(dp2971
g14
I00
sg32
I01
sg81
I00
sg15
I00
sbsbag0
(g67
g2
Ntp2972
Rp2973
(dp2974
g14
I00
sg32
I01
sg15
I00
sg2465
g0
(g85
g2
Ntp2975
Rp2976
(dp2977
g14
I00
sg32
I01
sg81
I-5
sg15
I00
sbsg2469
g0
(g85
g2
Ntp2978
Rp2979
(dp2980
g14
I00
sg32
I01
sg81
F5.0
sg15
I00
sbsg2473
g0
(g85
g2
Ntp2981
Rp2982
(dp2983
g14
I00
sg32
I01
sg81
F9999999.0
sg15
I00
sbsg1067
g0
(g85
g2
Ntp2984
Rp2985
(dp2986
g14
I00
sg32
I01
sg81
F3.0
sg15
I00
sbsg11
(lp2987
g2465
ag2469
ag2473
ag1067
ag2481
ag448
asg2481
g0
(g85
g2
Ntp2988
Rp2989
(dp2990
g14
I00
sg32
I01
sg81
F20.0
sg15
I00
sbsg448
g0
(g219
g2
Ntp2991
Rp2992
(dp2993
g14
I00
sg32
I01
sg81
I01
sg15
I00
sbsbatp2994
Rp2995
(dp2996
g14
I00
sg32
I01
sg15
I00
sg33
I1
sbsg34
g2452
sg35
S'PFClusterTimeSelector'
p2997
sbsg827
g462
sg984
g924
ssS'siPixelQualityESProducer'
p2998
g0
(g7
g2
Ntp2999
Rp3000
(dp3001
g11
(lp3002
S'ListOfRecordToMerge'
p3003
asg14
I00
sg15
I01
sg16
I40
sg17
g18
sg3003
g0
(g65
g20
(lp3004
g0
(g67
g2
Ntp3005
Rp3006
(dp3007
g14
I00
sg32
I01
sg15
I00
sS'record'
p3008
g0
(g77
g2
Ntp3009
Rp3010
(dp3011
g14
I00
sg32
I01
sg81
S'SiPixelQualityFromDbRcd'
p3012
sg15
I00
sbsS'tag'
p3013
g0
(g77
g2
Ntp3014
Rp3015
(dp3016
g14
I00
sg32
I01
sg81
g100
sg15
I00
sbsg11
(lp3017
g3008
ag3013
asbag0
(g67
g2
Ntp3018
Rp3019
(dp3020
g14
I00
sg32
I01
sg15
I00
sg3008
g0
(g77
g2
Ntp3021
Rp3022
(dp3023
g14
I00
sg32
I01
sg81
S'SiPixelDetVOffRcd'
p3024
sg15
I00
sbsg3013
g0
(g77
g2
Ntp3025
Rp3026
(dp3027
g14
I00
sg32
I01
sg81
g100
sg15
I00
sbsg11
(lp3028
g3008
ag3013
asbatp3029
Rp3030
(dp3031
g14
I00
sg32
I01
sg15
I00
sg33
I1
sbsg34
g2998
sg35
S'SiPixelQualityESProducer'
p3032
sbsS'GlobalTag'
p3033
g0
(cFWCore.ParameterSet.Modules
ESSource
p3034
g2
Ntp3035
Rp3036
(dp3037
g11
(lp3038
S'DBParameters'
p3039
aS'BlobStreamerName'
p3040
aS'toGet'
p3041
aS'connect'
p3042
aS'globaltag'
p3043
asg14
I00
sg15
I01
sg3043
g0
(g77
g2
Ntp3044
Rp3045
(dp3046
g14
I00
sg32
I01
sg81
S'GR_P_V56::All'
p3047
sg15
I01
sbsg16
I10
sg17
S'/cvmfs/cms.cern.ch/slc6_amd64_gcc491/cms/cmssw-patch/CMSSW_7_4_4_patch2/python/Configuration/StandardSequences/FrontierConditions_GlobalTag_cfi.py'
p3048
sg3041
g0
(g65
g20
(lp3049
tp3050
Rp3051
(dp3052
g14
I00
sg32
I01
sg15
I00
sg33
I1
sbsg3039
g0
(g67
g2
Ntp3053
Rp3054
(dp3055
g14
I00
sg32
I01
sS'authenticationPath'
p3056
g0
(g77
g2
Ntp3057
Rp3058
(dp3059
g14
I00
sg32
I00
sg81
g100
sg15
I00
sbsS'connectionRetrialPeriod'
p3060
g0
(g166
g2
Ntp3061
Rp3062
(dp3063
g14
I00
sg32
I00
sg81
I10
sg15
I00
sbsg15
I00
sS'idleConnectionCleanupPeriod'
p3064
g0
(g166
g2
Ntp3065
Rp3066
(dp3067
g14
I00
sg32
I00
sg81
I10
sg15
I00
sbsS'messageLevel'
p3068
g0
(g166
g2
Ntp3069
Rp3070
(dp3071
g14
I00
sg32
I00
sg81
I0
sg15
I00
sbsS'enablePoolAutomaticCleanUp'
p3072
g0
(g219
g2
Ntp3073
Rp3074
(dp3075
g14
I00
sg32
I00
sg81
I00
sg15
I00
sbsS'enableConnectionSharing'
p3076
g0
(g219
g2
Ntp3077
Rp3078
(dp3079
g14
I00
sg32
I00
sg81
I01
sg15
I00
sbsS'enableReadOnlySessionOnUpdateConnection'
p3080
g0
(g219
g2
Ntp3081
Rp3082
(dp3083
g14
I00
sg32
I00
sg81
I00
sg15
I00
sbsg11
(lp3084
g3056
ag3080
ag3064
ag3068
ag3072
ag3076
aS'connectionRetrialTimeOut'
p3085
aS'connectionTimeOut'
p3086
aS'authenticationSystem'
p3087
ag3060
asg3086
g0
(g166
g2
Ntp3088
Rp3089
(dp3090
g14
I00
sg32
I00
sg81
I60
sg15
I00
sbsg3087
g0
(g166
g2
Ntp3091
Rp3092
(dp3093
g14
I00
sg32
I00
sg81
I0
sg15
I00
sbsg3085
g0
(g166
g2
Ntp3094
Rp3095
(dp3096
g14
I00
sg32
I00
sg81
I60
sg15
I00
sbsbsg3042
g0
(g77
g2
Ntp3097
Rp3098
(dp3099
g14
I00
sg32
I01
sg81
S'frontier://FrontierProd/CMS_COND_31X_GLOBALTAG'
p3100
sg15
I00
sbsg34
g3033
sg3040
g0
(g77
g2
Ntp3101
Rp3102
(dp3103
g14
I00
sg32
I00
sg81
S'TBufferBlobStreamingService'
p3104
sg15
I00
sbsg35
S'PoolDBESSource'
p3105
sbsg442
g338
sS'CSCTightHaloFilter'
p3106
g0
(cFWCore.ParameterSet.Modules
EDFilter
p3107
g2
Ntp3108
Rp3109
(dp3110
g11
(lp3111
S'taggingMode'
p3112
asg14
I00
sg15
I01
sg16
I5
sg17
S'/cvmfs/cms.cern.ch/slc6_amd64_gcc491/cms/cmssw-patch/CMSSW_7_4_4_patch2/python/RecoMET/METFilters/CSCTightHaloFilter_cfi.py'
p3113
sg3112
g0
(g219
g2
Ntp3114
Rp3115
(dp3116
g14
I00
sg32
I01
sg81
I01
sg15
I00
sbsg34
g3106
sg35
g3106
sbsS'_Process__endpaths'
p3117
g0
(cFWCore.ParameterSet.DictTypes
SortedKeysDict
p3118
c__builtin__
dict
p3119
(dp3120
S'e1'
p3121
g0
(cFWCore.ParameterSet.SequenceTypes
EndPath
p3122
g2
Ntp3123
Rp3124
(dp3125
g14
I00
sg43
Nsg15
I00
sg34
g3121
sbstp3126
Rp3127
(dp3128
S'list'
p3129
(lp3130
g3121
asbsS'p'
p3131
g0
(cFWCore.ParameterSet.SequenceTypes
Path
p3132
g2
Ntp3133
Rp3134
(dp3135
g14
I00
sg43
g0
(g44
g2
Ntp3136
Rp3137
(dp3138
g48
(lp3139
g3109
ag2422
ag1969
ag2388
ag0
(cFWCore.ParameterSet.Modules
EDAnalyzer
p3140
g2
Ntp3141
Rp3142
(dp3143
g11
(lp3144
S'tracksCollection'
p3145
aS'pfClusterMET'
p3146
aS'EcalPFClusterCollection'
p3147
aS'caloMET'
p3148
aS'HFPFClusterCollection'
p3149
aS'HOPFClusterCollection'
p3150
aS'HBHEPFClusterCollection'
p3151
aS'rootOutputFile'
p3152
asg14
I00
sg3146
g0
(g93
g2
Ntp3153
Rp3154
(dp3155
g14
I00
sg32
I01
sg15
I00
sg97
g2386
sg99
g100
sg101
g100
sbsg15
I00
sg16
I139
sg3145
g0
(g93
g2
Ntp3156
Rp3157
(dp3158
g14
I00
sg32
I01
sg15
I00
sg97
S'generalTracks'
p3159
sg99
g100
sg101
g100
sbsg3147
g0
(g93
g2
Ntp3160
Rp3161
(dp3162
g14
I00
sg32
I01
sg15
I00
sg97
g907
sg99
g100
sg101
g100
sbsg34
S'metScanNtupleMaker'
p3163
sg3151
g0
(g93
g2
Ntp3164
Rp3165
(dp3166
g14
I00
sg32
I01
sg15
I00
sg97
g1698
sg99
g100
sg101
g100
sbsg17
g1987
sg3148
g0
(g93
g2
Ntp3167
Rp3168
(dp3169
g14
I00
sg32
I01
sg15
I00
sg97
S'caloMet'
p3170
sg99
g100
sg101
g100
sbsg3149
g0
(g93
g2
Ntp3171
Rp3172
(dp3173
g14
I00
sg32
I01
sg15
I00
sg97
g1602
sg99
g100
sg101
g100
sbsg3150
g0
(g93
g2
Ntp3174
Rp3175
(dp3176
g14
I00
sg32
I01
sg15
I00
sg97
g1925
sg99
g100
sg101
g100
sbsg35
S'METScanningNtupleMaker'
p3177
sg3152
g0
(g77
g2
Ntp3178
Rp3179
(dp3180
g14
I00
sg32
I01
sg81
S'tuple.root'
p3181
sg15
I00
sbsbasbsg15
I00
sg34
g3131
sbsS'MuonDetLayerGeometryESProducer'
p3182
g0
(g7
g2
Ntp3183
Rp3184
(dp3185
g11
(lp3186
sg14
I00
sg15
I00
sg16
I40
sg17
g18
sg34
g3182
sg35
g3182
sbsS'EcalEndcapGeometryFromDBEP'
p3187
g0
(g7
g2
Ntp3188
Rp3189
(dp3190
g11
(lp3191
g2062
asg14
I00
sg15
I01
sg16
I40
sg17
g18
sg34
g3187
sg2062
g0
(g219
g2
Ntp3192
Rp3193
(dp3194
g14
I00
sg32
I01
sg81
I01
sg15
I01
sbsg35
g3187
sbsg2452
g2454
sg827
g462
sS'MessageLogger'
p3195
g0
(cFWCore.ParameterSet.Modules
Service
p3196
g2
Ntp3197
Rp3198
(dp3199
g14
I00
sS'suppressInfo'
p3200
g0
(g19
g20
(lp3201
tp3202
Rp3203
(dp3204
g14
I00
sg32
I00
sg15
I00
sg33
I1
sbsS'suppressDebug'
p3205
g0
(g19
g20
(lp3206
tp3207
Rp3208
(dp3209
g14
I00
sg32
I00
sg15
I00
sg33
I1
sbsS'cout'
p3210
g0
(g67
g2
Ntp3211
Rp3212
(dp3213
g14
I00
sg32
I00
sS'placeholder'
p3214
g0
(g219
g2
Ntp3215
Rp3216
(dp3217
g14
I00
sg32
I00
sg81
I01
sg15
I00
sbsg15
I00
sg11
(lp3218
g3214
asbsg16
I10
sS'debugModules'
p3219
g0
(g19
g20
(lp3220
tp3221
Rp3222
(dp3223
g14
I00
sg32
I00
sg15
I00
sg33
I1
sbsg35
g3195
sS'fwkJobReports'
p3224
g0
(g19
g20
(lp3225
S'FrameworkJobReport'
p3226
atp3227
Rp3228
(dp3229
g14
I00
sg32
I00
sg15
I00
sg33
I1
sbsg11
(lp3230
g3200
aS'debugs'
p3231
ag3205
ag3210
aS'cerr_stats'
p3232
aS'warnings'
p3233
aS'default'
p3234
aS'statistics'
p3235
aS'cerr'
p3236
ag3226
aS'suppressWarning'
p3237
aS'errors'
p3238
aS'destinations'
p3239
ag3219
aS'infos'
p3240
aS'categories'
p3241
ag3224
asg3235
g0
(g19
g20
(lp3242
g3232
atp3243
Rp3244
(dp3245
g14
I00
sg32
I00
sg15
I00
sg33
I1
sbsg17
S'/afs/cern.ch/user/c/cheidegg/p/CMSSW_7_4_4_patch2/python/FWCore/ParameterSet/Modules.py'
p3246
sg3239
g0
(g19
g20
(lp3247
g3233
ag3238
ag3240
ag3231
ag3210
ag3236
atp3248
Rp3249
(dp3250
g14
I00
sg32
I00
sg15
I00
sg33
I1
sbsg3231
g0
(g67
g2
Ntp3251
Rp3252
(dp3253
g14
I00
sg32
I00
sg3214
g0
(g219
g2
Ntp3254
Rp3255
(dp3256
g14
I00
sg32
I00
sg81
I01
sg15
I00
sbsg15
I00
sg11
(lp3257
g3214
asbsg3233
g0
(g67
g2
Ntp3258
Rp3259
(dp3260
g14
I00
sg32
I00
sg3214
g0
(g219
g2
Ntp3261
Rp3262
(dp3263
g14
I00
sg32
I00
sg81
I01
sg15
I00
sbsg15
I00
sg11
(lp3264
g3214
asbsg3238
g0
(g67
g2
Ntp3265
Rp3266
(dp3267
g14
I00
sg32
I00
sg3214
g0
(g219
g2
Ntp3268
Rp3269
(dp3270
g14
I00
sg32
I00
sg81
I01
sg15
I00
sbsg15
I00
sg11
(lp3271
g3214
asbsg3226
g0
(g67
g2
Ntp3272
Rp3273
(dp3274
g14
I00
sg32
I00
sg15
I00
sg3234
g0
(g67
g2
Ntp3275
Rp3276
(dp3277
g14
I00
sg32
I00
sS'limit'
p3278
g0
(g166
g2
Ntp3279
Rp3280
(dp3281
g14
I00
sg32
I00
sg81
I0
sg15
I00
sbsg15
I00
sg11
(lp3282
g3278
asbsS'FwkJob'
p3283
g0
(g67
g2
Ntp3284
Rp3285
(dp3286
g14
I00
sg32
I00
sg15
I00
sg3278
g0
(g166
g2
Ntp3287
Rp3288
(dp3289
g14
I00
sg32
I00
sg81
I10000000
sg15
I00
sbsg11
(lp3290
S'optionalPSet'
p3291
ag3278
asg3291
g0
(g219
g2
Ntp3292
Rp3293
(dp3294
g14
I00
sg32
I00
sg81
I01
sg15
I00
sbsbsg11
(lp3295
g3234
ag3291
ag3283
asg3291
g0
(g219
g2
Ntp3296
Rp3297
(dp3298
g14
I00
sg32
I00
sg81
I01
sg15
I00
sbsbsg3237
g0
(g19
g20
(lp3299
tp3300
Rp3301
(dp3302
g14
I00
sg32
I00
sg15
I00
sg33
I1
sbsg3240
g0
(g67
g2
Ntp3303
Rp3304
(dp3305
g14
I00
sg32
I00
sg15
I00
sS'Root_NoDictionary'
p3306
g0
(g67
g2
Ntp3307
Rp3308
(dp3309
g14
I00
sg32
I00
sg15
I00
sg3278
g0
(g166
g2
Ntp3310
Rp3311
(dp3312
g14
I00
sg32
I00
sg81
I0
sg15
I00
sbsg11
(lp3313
g3291
ag3278
asg3291
g0
(g219
g2
Ntp3314
Rp3315
(dp3316
g14
I00
sg32
I00
sg81
I01
sg15
I00
sbsbsg11
(lp3317
g3291
ag3306
ag3214
asg3291
g0
(g219
g2
Ntp3318
Rp3319
(dp3320
g14
I00
sg32
I00
sg81
I01
sg15
I00
sbsg3214
g0
(g219
g2
Ntp3321
Rp3322
(dp3323
g14
I00
sg32
I00
sg81
I01
sg15
I00
sbsbsg3241
g0
(g19
g20
(lp3324
g3283
aS'FwkReport'
p3325
aS'FwkSummary'
p3326
ag3306
atp3327
Rp3328
(dp3329
g14
I00
sg32
I00
sg15
I00
sg33
I1
sbsg15
I00
sg3232
g0
(g67
g2
Ntp3330
Rp3331
(dp3332
g14
I00
sg32
I00
sg15
I00
sg3291
g0
(g219
g2
Ntp3333
Rp3334
(dp3335
g14
I00
sg32
I00
sg81
I01
sg15
I00
sbsg11
(lp3336
g84
aS'output'
p3337
ag3291
asg84
g0
(g77
g2
Ntp3338
Rp3339
(dp3340
g14
I00
sg32
I00
sg81
S'WARNING'
p3341
sg15
I00
sbsg3337
g0
(g77
g2
Ntp3342
Rp3343
(dp3344
g14
I00
sg32
I00
sg81
g3236
sg15
I00
sbsbsg3234
g0
(g67
g2
Ntp3345
Rp3346
(dp3347
g14
I00
sg32
I00
sg15
I00
sg11
(lp3348
sbsg3236
g0
(g67
g2
Ntp3349
Rp3350
(dp3351
g14
I00
sg32
I00
sS'noTimeStamps'
p3352
g0
(g219
g2
Ntp3353
Rp3354
(dp3355
g14
I00
sg32
I00
sg81
I00
sg15
I00
sbsg3325
g0
(g67
g2
Ntp3356
Rp3357
(dp3358
g14
I00
sg32
I00
sg15
I01
sS'reportEvery'
p3359
g0
(g166
g2
Ntp3360
Rp3361
(dp3362
g14
I00
sg32
I00
sg81
I50
sg15
I01
sbsg3278
g0
(g166
g2
Ntp3363
Rp3364
(dp3365
g14
I00
sg32
I00
sg81
I10000000
sg15
I00
sbsg11
(lp3366
g3359
ag3291
ag3278
asg3291
g0
(g219
g2
Ntp3367
Rp3368
(dp3369
g14
I00
sg32
I00
sg81
I01
sg15
I00
sbsbsg15
I00
sg3234
g0
(g67
g2
Ntp3370
Rp3371
(dp3372
g14
I00
sg32
I00
sg3278
g0
(g166
g2
Ntp3373
Rp3374
(dp3375
g14
I00
sg32
I00
sg81
I10000000
sg15
I00
sbsg15
I00
sg11
(lp3376
g3278
asbsg3306
g0
(g67
g2
Ntp3377
Rp3378
(dp3379
g14
I00
sg32
I00
sg15
I00
sg3278
g0
(g166
g2
Ntp3380
Rp3381
(dp3382
g14
I00
sg32
I00
sg81
I0
sg15
I00
sbsg11
(lp3383
g3291
ag3278
asg3291
g0
(g219
g2
Ntp3384
Rp3385
(dp3386
g14
I00
sg32
I00
sg81
I01
sg15
I00
sbsbsS'INFO'
p3387
g0
(g67
g2
Ntp3388
Rp3389
(dp3390
g14
I00
sg32
I00
sg3278
g0
(g166
g2
Ntp3391
Rp3392
(dp3393
g14
I00
sg32
I00
sg81
I0
sg15
I00
sbsg15
I00
sg11
(lp3394
g3278
asbsg3291
g0
(g219
g2
Ntp3395
Rp3396
(dp3397
g14
I00
sg32
I00
sg81
I01
sg15
I00
sbsg3283
g0
(g67
g2
Ntp3398
Rp3399
(dp3400
g14
I00
sg32
I00
sg15
I00
sg3278
g0
(g166
g2
Ntp3401
Rp3402
(dp3403
g14
I00
sg32
I00
sg81
I0
sg15
I00
sbsg11
(lp3404
g3291
ag3278
asg3291
g0
(g219
g2
Ntp3405
Rp3406
(dp3407
g14
I00
sg32
I00
sg81
I01
sg15
I00
sbsbsg3326
g0
(g67
g2
Ntp3408
Rp3409
(dp3410
g14
I00
sg32
I00
sg15
I00
sg3359
g0
(g166
g2
Ntp3411
Rp3412
(dp3413
g14
I00
sg32
I00
sg81
I1
sg15
I00
sbsg3278
g0
(g166
g2
Ntp3414
Rp3415
(dp3416
g14
I00
sg32
I00
sg81
I10000000
sg15
I00
sbsg11
(lp3417
g3359
ag3291
ag3278
asg3291
g0
(g219
g2
Ntp3418
Rp3419
(dp3420
g14
I00
sg32
I00
sg81
I01
sg15
I00
sbsbsg11
(lp3421
g3387
ag3352
ag3325
ag3234
ag3306
ag84
ag3283
ag3326
ag3291
asg84
g0
(g77
g2
Ntp3422
Rp3423
(dp3424
g14
I00
sg32
I00
sg81
g3387
sg15
I00
sbsbsbsg907
g869
sS'METSignificance_params'
p3425
g0
(g67
g2
Ntp3426
Rp3427
(dp3428
g14
I00
sg32
I01
sS'PF_EtResType6'
p3429
g0
(g953
g20
(lp3430
F0.0
aF1.22
aF0.050000000000000003
atp3431
Rp3432
(dp3433
g14
I00
sg32
I01
sg15
I00
sbsS'HB_EtResPar'
p3434
g0
(g953
g20
(lp3435
F0.0
aF1.22
aF0.050000000000000003
atp3436
Rp3437
(dp3438
g14
I00
sg32
I01
sg15
I00
sbsS'jdphi6'
p3439
g0
(g953
g20
(lp3440
F0.084000000000000005
aF0.080000000000000002
aF0.071999999999999995
aF0.065000000000000002
aF0.066000000000000003
aF0.059999999999999998
aF0.050999999999999997
aF0.049000000000000002
aF0.044999999999999998
aF0.044999999999999998
atp3441
Rp3442
(dp3443
g14
I00
sg32
I01
sg15
I00
sbsS'jdphi3'
p3444
g0
(g953
g20
(lp3445
F0.042000000000000003
aF0.042999999999999997
aF0.043999999999999997
aF0.042999999999999997
aF0.041000000000000002
aF0.039
aF0.039
aF0.035999999999999997
aF0.034000000000000002
aF0.031
atp3446
Rp3447
(dp3448
g14
I00
sg32
I01
sg15
I00
sbsS'jdpt9'
p3449
g0
(g953
g20
(lp3450
F0.84299999999999997
aF0.88500000000000001
aF1.2450000000000001
aF1.665
aF1.944
aF1.9810000000000001
aF1.972
aF2.875
aF3.923
aF7.5099999999999998
atp3451
Rp3452
(dp3453
g14
I00
sg32
I01
sg15
I00
sbsS'jdpt8'
p3454
g0
(g953
g20
(lp3455
F0.88900000000000001
aF0.93899999999999995
aF1.1659999999999999
aF1.365
aF1.5529999999999999
aF1.8049999999999999
aF2.0600000000000001
aF2.2200000000000002
aF2.2679999999999998
aF2.2469999999999999
atp3456
Rp3457
(dp3458
g14
I00
sg32
I01
sg15
I00
sbsS'jdpt7'
p3459
g0
(g953
g20
(lp3460
F1.0940000000000001
aF1.139
aF1.4359999999999999
aF1.6719999999999999
aF1.831
aF2.0499999999999998
aF2.2669999999999999
aF2.5489999999999999
aF2.7850000000000001
aF2.8599999999999999
atp3461
Rp3462
(dp3463
g14
I00
sg32
I01
sg15
I00
sbsS'jdpt6'
p3464
g0
(g953
g20
(lp3465
F1.2130000000000001
aF1.298
aF1.716
aF2.0150000000000001
aF2.1909999999999998
aF2.6120000000000001
aF2.863
aF2.879
aF2.9249999999999998
aF2.9020000000000001
atp3466
Rp3467
(dp3468
g14
I00
sg32
I01
sg15
I00
sbsS'jdpt5'
p3469
g0
(g953
g20
(lp3470
F1.0489999999999999
aF1.149
aF1.607
aF1.869
aF2.012
aF2.2189999999999999
aF2.2890000000000001
aF2.4119999999999999
aF2.6949999999999998
aF2.8650000000000002
atp3471
Rp3472
(dp3473
g14
I00
sg32
I01
sg15
I00
sbsS'jdpt4'
p3474
g0
(g953
g20
(lp3475
F0.84999999999999998
aF0.96099999999999997
aF1.337
aF1.593
aF1.8540000000000001
aF2.0049999999999999
aF2.2090000000000001
aF2.5329999999999999
aF2.8119999999999998
aF3.0470000000000002
atp3476
Rp3477
(dp3478
g14
I00
sg32
I01
sg15
I00
sbsS'jdpt3'
p3479
g0
(g953
g20
(lp3480
F0.92900000000000005
aF1.04
aF1.46
aF1.74
aF2.0419999999999998
aF2.2890000000000001
aF2.6389999999999998
aF2.8370000000000002
aF2.9460000000000002
aF2.9710000000000001
atp3481
Rp3482
(dp3483
g14
I00
sg32
I01
sg15
I00
sbsS'jdpt2'
p3484
g0
(g953
g20
(lp3485
F0.84099999999999997
aF0.93700000000000006
aF1.3160000000000001
aF1.605
aF1.919
aF2.2949999999999999
aF2.5619999999999998
aF2.722
aF2.9430000000000001
aF3.2930000000000001
atp3486
Rp3487
(dp3488
g14
I00
sg32
I01
sg15
I00
sbsS'EE_EtResPar'
p3489
g0
(g953
g20
(lp3490
F0.20000000000000001
aF0.029999999999999999
aF0.0050000000000000001
atp3491
Rp3492
(dp3493
g14
I00
sg32
I01
sg15
I00
sbsS'jdpt0'
p3494
g0
(g953
g20
(lp3495
F0.749
aF0.82899999999999996
aF1.099
aF1.355
aF1.5840000000000001
aF1.8069999999999999
aF2.0350000000000001
aF2.2170000000000001
aF2.3780000000000001
aF2.5910000000000002
atp3496
Rp3497
(dp3498
g14
I00
sg32
I01
sg15
I00
sbsg11
(lp3499
S'resolutionsEra'
p3500
ag3434
aS'EE_PhiResPar'
p3501
ag3449
ag3454
ag3459
ag3464
ag3469
ag3474
ag3479
ag3484
aS'jdpt1'
p3502
ag3494
aS'HE_EtResPar'
p3503
aS'HF_PhiResPar'
p3504
aS'PF_PhiResType7'
p3505
aS'HE_PhiResPar'
p3506
ag3489
aS'PF_PhiResType2'
p3507
aS'PF_PhiResType3'
p3508
aS'HF_EtResPar'
p3509
aS'resolutionsAlgo'
p3510
aS'PF_PhiResType6'
p3511
aS'HB_PhiResPar'
p3512
aS'PF_PhiResType4'
p3513
aS'PF_PhiResType5'
p3514
aS'ptresolthreshold'
p3515
aS'EB_EtResPar'
p3516
aS'jdphi8'
p3517
aS'EB_PhiResPar'
p3518
aS'jdphi9'
p3519
aS'PF_PhiResType1'
p3520
aS'jdphi4'
p3521
aS'HO_PhiResPar'
p3522
aS'jdphi2'
p3523
aS'jdphi1'
p3524
aS'jdphi0'
p3525
aS'jdphi7'
p3526
ag3439
aS'jdphi5'
p3527
aS'HO_EtResPar'
p3528
ag3444
aS'PF_EtResType5'
p3529
aS'PF_EtResType4'
p3530
aS'PF_EtResType7'
p3531
ag3429
aS'PF_EtResType1'
p3532
aS'PF_EtResType3'
p3533
aS'PF_EtResType2'
p3534
asg3504
g0
(g953
g20
(lp3535
F0.050220000000000001
atp3536
Rp3537
(dp3538
g14
I00
sg32
I01
sg15
I00
sbsg3506
g0
(g953
g20
(lp3539
F0.02511
atp3540
Rp3541
(dp3542
g14
I00
sg32
I01
sg15
I00
sbsg3502
g0
(g953
g20
(lp3543
F0.71799999999999997
aF0.81299999999999994
aF1.133
aF1.3839999999999999
aF1.5880000000000001
aF1.841
aF2.1150000000000002
aF2.379
aF2.508
aF2.7719999999999998
atp3544
Rp3545
(dp3546
g14
I00
sg32
I01
sg15
I00
sbsg3507
g0
(g953
g20
(lp3547
F0.002
atp3548
Rp3549
(dp3550
g14
I00
sg32
I01
sg15
I00
sbsg3508
g0
(g953
g20
(lp3551
F0.002
atp3552
Rp3553
(dp3554
g14
I00
sg32
I01
sg15
I00
sbsg3509
g0
(g953
g20
(lp3555
F0.0
aF1.8200000000000001
aF0.089999999999999997
atp3556
Rp3557
(dp3558
g14
I00
sg32
I01
sg15
I00
sbsg3500
g0
(g77
g2
Ntp3559
Rp3560
(dp3561
g14
I00
sg32
I01
sg81
S'Spring10'
p3562
sg15
I00
sbsg3511
g0
(g953
g20
(lp3563
F0.02511
atp3564
Rp3565
(dp3566
g14
I00
sg32
I01
sg15
I00
sbsg3505
g0
(g953
g20
(lp3567
F0.02511
atp3568
Rp3569
(dp3570
g14
I00
sg32
I01
sg15
I00
sbsg3513
g0
(g953
g20
(lp3571
F0.0028
aF0.0
aF0.0022000000000000001
atp3572
Rp3573
(dp3574
g14
I00
sg32
I01
sg15
I00
sbsg3514
g0
(g953
g20
(lp3575
F0.10000000000000001
aF0.10000000000000001
aF0.13
atp3576
Rp3577
(dp3578
g14
I00
sg32
I01
sg15
I00
sbsg3515
g0
(g85
g2
Ntp3579
Rp3580
(dp3581
g14
I00
sg32
I01
sg81
F10.0
sg15
I00
sbsg3528
g0
(g953
g20
(lp3582
F0.0
aF1.3
aF0.0050000000000000001
atp3583
Rp3584
(dp3585
g14
I00
sg32
I01
sg15
I00
sbsg3516
g0
(g953
g20
(lp3586
F0.20000000000000001
aF0.029999999999999999
aF0.0050000000000000001
atp3587
Rp3588
(dp3589
g14
I00
sg32
I01
sg15
I00
sbsg34
g3425
sg3517
g0
(g953
g20
(lp3590
F0.058999999999999997
aF0.057000000000000002
aF0.050999999999999997
aF0.043999999999999997
aF0.037999999999999999
aF0.035000000000000003
aF0.036999999999999998
aF0.032000000000000001
aF0.028000000000000001
aF0.028000000000000001
atp3591
Rp3592
(dp3593
g14
I00
sg32
I01
sg15
I00
sbsg3518
g0
(g953
g20
(lp3594
F0.0050200000000000002
atp3595
Rp3596
(dp3597
g14
I00
sg32
I01
sg15
I00
sbsg3519
g0
(g953
g20
(lp3598
F0.062
aF0.058999999999999997
aF0.052999999999999999
aF0.047
aF0.042000000000000003
aF0.044999999999999998
aF0.035999999999999997
aF0.032000000000000001
aF0.034000000000000002
aF0.043999999999999997
atp3599
Rp3600
(dp3601
g14
I00
sg32
I01
sg15
I00
sbsg3510
g0
(g77
g2
Ntp3602
Rp3603
(dp3604
g14
I00
sg32
I01
sg81
S'AK5PF'
p3605
sg15
I00
sbsg15
I00
sg3521
g0
(g953
g20
(lp3606
F0.042000000000000003
aF0.042000000000000003
aF0.042999999999999997
aF0.042000000000000003
aF0.037999999999999999
aF0.035999999999999997
aF0.035999999999999997
aF0.033000000000000002
aF0.031
aF0.031
atp3607
Rp3608
(dp3609
g14
I00
sg32
I01
sg15
I00
sbsg3522
g0
(g953
g20
(lp3610
F0.02511
atp3611
Rp3612
(dp3613
g14
I00
sg32
I01
sg15
I00
sbsg3523
g0
(g953
g20
(lp3614
F0.040000000000000001
aF0.040000000000000001
aF0.040000000000000001
aF0.040000000000000001
aF0.040000000000000001
aF0.037999999999999999
aF0.035999999999999997
aF0.035000000000000003
aF0.034000000000000002
aF0.033000000000000002
atp3615
Rp3616
(dp3617
g14
I00
sg32
I01
sg15
I00
sbsg3524
g0
(g953
g20
(lp3618
F0.034000000000000002
aF0.035000000000000003
aF0.035000000000000003
aF0.035000000000000003
aF0.035000000000000003
aF0.034000000000000002
aF0.031
aF0.029999999999999999
aF0.029000000000000001
aF0.027
atp3619
Rp3620
(dp3621
g14
I00
sg32
I01
sg15
I00
sbsg3525
g0
(g953
g20
(lp3622
F0.034000000000000002
aF0.034000000000000002
aF0.034000000000000002
aF0.034000000000000002
aF0.032000000000000001
aF0.031
aF0.028000000000000001
aF0.027
aF0.027
aF0.027
atp3623
Rp3624
(dp3625
g14
I00
sg32
I01
sg15
I00
sbsg3526
g0
(g953
g20
(lp3626
F0.076999999999999999
aF0.071999999999999995
aF0.058999999999999997
aF0.050000000000000003
aF0.044999999999999998
aF0.042000000000000003
aF0.039
aF0.039
aF0.036999999999999998
aF0.031
atp3627
Rp3628
(dp3629
g14
I00
sg32
I01
sg15
I00
sbsg3501
g0
(g953
g20
(lp3630
F0.02511
atp3631
Rp3632
(dp3633
g14
I00
sg32
I01
sg15
I00
sbsg3527
g0
(g953
g20
(lp3634
F0.069000000000000006
aF0.069000000000000006
aF0.064000000000000001
aF0.058000000000000003
aF0.052999999999999999
aF0.049000000000000002
aF0.049000000000000002
aF0.042999999999999997
aF0.039
aF0.040000000000000001
atp3635
Rp3636
(dp3637
g14
I00
sg32
I01
sg15
I00
sbsg3512
g0
(g953
g20
(lp3638
F0.02511
atp3639
Rp3640
(dp3641
g14
I00
sg32
I01
sg15
I00
sbsg3520
g0
(g953
g20
(lp3642
F0.002
atp3643
Rp3644
(dp3645
g14
I00
sg32
I01
sg15
I00
sbsg3529
g0
(g953
g20
(lp3646
F0.40999999999999998
aF0.52000000000000002
aF0.25
atp3647
Rp3648
(dp3649
g14
I00
sg32
I01
sg15
I00
sbsg3530
g0
(g953
g20
(lp3650
F0.042000000000000003
aF0.10000000000000001
aF0.0
atp3651
Rp3652
(dp3653
g14
I00
sg32
I01
sg15
I00
sbsg3531
g0
(g953
g20
(lp3654
F0.0
aF1.22
aF0.050000000000000003
atp3655
Rp3656
(dp3657
g14
I00
sg32
I01
sg15
I00
sbsg3503
g0
(g953
g20
(lp3658
F0.0
aF1.3
aF0.050000000000000003
atp3659
Rp3660
(dp3661
g14
I00
sg32
I01
sg15
I00
sbsg3532
g0
(g953
g20
(lp3662
F0.050000000000000003
aI0
aI0
atp3663
Rp3664
(dp3665
g14
I00
sg32
I01
sg15
I00
sbsg3533
g0
(g953
g20
(lp3666
F0.050000000000000003
aI0
aI0
atp3667
Rp3668
(dp3669
g14
I00
sg32
I01
sg15
I00
sbsg3534
g0
(g953
g20
(lp3670
F0.050000000000000003
aI0
aI0
atp3671
Rp3672
(dp3673
g14
I00
sg32
I01
sg15
I00
sbsbsS'_Process__services'
p3674
(dp3675
g3195
g3198
ssg1345
g1152
sg1768
g1709
sS'CastorGeometryFromDBEP'
p3676
g0
(g7
g2
Ntp3677
Rp3678
(dp3679
g11
(lp3680
g2062
asg14
I00
sg15
I00
sg16
I40
sg17
g18
sg34
g3676
sg2062
g0
(g219
g2
Ntp3681
Rp3682
(dp3683
g14
I00
sg32
I01
sg81
I00
sg15
I00
sbsg35
g3676
sbsS'trackerGeometryDB'
p3684
g0
(g7
g2
Ntp3685
Rp3686
(dp3687
g11
(lp3688
g2172
aS'fromDDD'
p3689
aS'trackerGeometryConstants'
p3690
ag2062
aS'alignmentsLabel'
p3691
asg14
I00
sg2172
g0
(g77
g2
Ntp3692
Rp3693
(dp3694
g14
I00
sg32
I01
sg81
g100
sg15
I00
sbsg3690
g0
(g67
g2
Ntp3695
Rp3696
(dp3697
g14
I00
sg32
I01
sS'ROCS_X'
p3698
g0
(g166
g2
Ntp3699
Rp3700
(dp3701
g14
I00
sg32
I01
sg81
I0
sg15
I00
sbsS'ROCS_Y'
p3702
g0
(g166
g2
Ntp3703
Rp3704
(dp3705
g14
I00
sg32
I01
sg81
I0
sg15
I00
sbsS'upgradeGeometry'
p3706
g0
(g219
g2
Ntp3707
Rp3708
(dp3709
g14
I00
sg32
I01
sg81
I00
sg15
I00
sbsS'BIG_PIX_PER_ROC_Y'
p3710
g0
(g166
g2
Ntp3711
Rp3712
(dp3713
g14
I00
sg32
I01
sg81
I2
sg15
I00
sbsS'BIG_PIX_PER_ROC_X'
p3714
g0
(g166
g2
Ntp3715
Rp3716
(dp3717
g14
I00
sg32
I01
sg81
I1
sg15
I00
sbsS'ROWS_PER_ROC'
p3718
g0
(g166
g2
Ntp3719
Rp3720
(dp3721
g14
I00
sg32
I01
sg81
I80
sg15
I00
sbsg11
(lp3722
g3698
ag3702
ag3706
ag3710
ag3714
ag3718
aS'COLS_PER_ROC'
p3723
asg3723
g0
(g166
g2
Ntp3724
Rp3725
(dp3726
g14
I00
sg32
I01
sg81
I52
sg15
I00
sbsg15
I00
sbsg15
I00
sg3691
g0
(g77
g2
Ntp3727
Rp3728
(dp3729
g14
I00
sg32
I01
sg81
g100
sg15
I00
sbsg17
g18
sg16
I40
sg34
g3684
sg3689
g0
(g219
g2
Ntp3730
Rp3731
(dp3732
g14
I00
sg32
I01
sg81
I00
sg15
I00
sbsg2062
g0
(g219
g2
Ntp3733
Rp3734
(dp3735
g14
I00
sg32
I01
sg81
I01
sg15
I00
sbsg35
S'TrackerDigiGeometryESModule'
p3736
sbsg1135
g1024
sS'out'
p3737
g0
(cFWCore.ParameterSet.Modules
OutputModule
p3738
g2
Ntp3739
Rp3740
(dp3741
g11
(lp3742
S'fileName'
p3743
aS'SelectEvents'
p3744
aS'outputCommands'
p3745
asg14
I00
sg15
I00
sg3745
g0
(g19
g20
(lp3746
S'keep *'
p3747
atp3748
Rp3749
(dp3750
g14
I00
sg32
I00
sg15
I00
sg33
I1
sbsg17
g1987
sg3744
g0
(g67
g2
Ntp3751
Rp3752
(dp3753
g14
I00
sg32
I00
sg3744
g0
(g19
g20
(lp3754
g3131
atp3755
Rp3756
(dp3757
g14
I00
sg32
I01
sg15
I00
sg33
I1
sbsg15
I00
sg11
(lp3758
g3744
asbsg16
I37
sg34
g3737
sg3743
g0
(g77
g2
Ntp3759
Rp3760
(dp3761
g14
I00
sg32
I00
sg81
S'skim.root'
p3762
sg15
I00
sbsg35
S'PoolOutputModule'
p3763
sbsS'eegeom'
p3764
g0
(g3034
g2
Ntp3765
Rp3766
(dp3767
g11
(lp3768
S'iovIsRunNotTime'
p3769
aS'recordName'
p3770
aS'firstValid'
p3771
asg14
I00
sg15
I00
sg16
I6
sg3770
g0
(g77
g2
Ntp3772
Rp3773
(dp3774
g14
I00
sg32
I01
sg81
S'EcalMappingRcd'
p3775
sg15
I00
sbsg17
S'/cvmfs/cms.cern.ch/slc6_amd64_gcc491/cms/cmssw-patch/CMSSW_7_4_4_patch2/python/Geometry/EcalMapping/EcalMappingRecord_cfi.py'
p3776
sg3771
g0
(cFWCore.ParameterSet.Types
vuint32
p3777
g20
(lp3778
I1
atp3779
Rp3780
(dp3781
g14
I00
sg32
I01
sg15
I00
sbsg34
g3764
sg3769
g0
(g219
g2
Ntp3782
Rp3783
(dp3784
g14
I00
sg32
I01
sg81
I01
sg15
I00
sbsg35
S'EmptyESSource'
p3785
sbsS'ecalSeverityLevel'
p3786
g0
(g7
g2
Ntp3787
Rp3788
(dp3789
g11
(lp3790
S'dbstatusMask'
p3791
aS'timeThresh'
p3792
aS'flagMask'
p3793
asg14
I00
sg15
I00
sg3793
g0
(g67
g2
Ntp3794
Rp3795
(dp3796
g14
I00
sg32
I01
sg15
I00
sS'kGood'
p3797
g0
(g19
g20
(lp3798
g3797
atp3799
Rp3800
(dp3801
g14
I00
sg32
I01
sg15
I00
sg33
I1
sbsS'kTime'
p3802
g0
(g19
g20
(lp3803
S'kOutOfTime'
p3804
atp3805
Rp3806
(dp3807
g14
I00
sg32
I01
sg15
I00
sg33
I1
sbsS'kRecovered'
p3808
g0
(g19
g20
(lp3809
S'kLeadingEdgeRecovered'
p3810
aS'kTowerRecovered'
p3811
atp3812
Rp3813
(dp3814
g14
I00
sg32
I01
sg15
I00
sg33
I1
sbsS'kWeird'
p3815
g0
(g19
g20
(lp3816
g3815
aS'kDiWeird'
p3817
atp3818
Rp3819
(dp3820
g14
I00
sg32
I01
sg15
I00
sg33
I1
sbsg11
(lp3821
g3808
ag3797
ag3802
ag3815
aS'kBad'
p3822
aS'kProblematic'
p3823
asg3822
g0
(g19
g20
(lp3824
S'kFaultyHardware'
p3825
aS'kDead'
p3826
aS'kKilled'
p3827
atp3828
Rp3829
(dp3830
g14
I00
sg32
I01
sg15
I00
sg33
I1
sbsg3823
g0
(g19
g20
(lp3831
S'kPoorReco'
p3832
aS'kPoorCalib'
p3833
aS'kNoisy'
p3834
aS'kSaturated'
p3835
atp3836
Rp3837
(dp3838
g14
I00
sg32
I01
sg15
I00
sg33
I1
sbsbsg16
I40
sg17
g18
sg3791
g0
(g67
g2
Ntp3839
Rp3840
(dp3841
g14
I00
sg32
I01
sg15
I00
sg3797
g0
(g19
g20
(lp3842
S'kOk'
p3843
atp3844
Rp3845
(dp3846
g14
I00
sg32
I01
sg15
I00
sg33
I1
sbsg3802
g0
(g19
g20
(lp3847
tp3848
Rp3849
(dp3850
g14
I00
sg32
I01
sg15
I00
sg33
I1
sbsg3808
g0
(g19
g20
(lp3851
tp3852
Rp3853
(dp3854
g14
I00
sg32
I01
sg15
I00
sg33
I1
sbsg3815
g0
(g19
g20
(lp3855
tp3856
Rp3857
(dp3858
g14
I00
sg32
I01
sg15
I00
sg33
I1
sbsg11
(lp3859
g3808
ag3797
ag3802
ag3815
ag3822
ag3823
asg3822
g0
(g19
g20
(lp3860
S'kNonRespondingIsolated'
p3861
aS'kDeadVFE'
p3862
aS'kDeadFE'
p3863
aS'kNoDataNoTP'
p3864
atp3865
Rp3866
(dp3867
g14
I00
sg32
I01
sg15
I00
sg33
I1
sbsg3823
g0
(g19
g20
(lp3868
S'kDAC'
p3869
aS'kNoLaser'
p3870
ag3834
aS'kNNoisy'
p3871
aS'kNNNoisy'
p3872
aS'kNNNNoisy'
p3873
aS'kNNNNNoisy'
p3874
aS'kFixedG6'
p3875
aS'kFixedG1'
p3876
aS'kFixedG0'
p3877
atp3878
Rp3879
(dp3880
g14
I00
sg32
I01
sg15
I00
sg33
I1
sbsbsg3792
g0
(g85
g2
Ntp3881
Rp3882
(dp3883
g14
I00
sg32
I01
sg81
F2.0
sg15
I00
sbsg34
g3786
sg35
S'EcalSeverityLevelESProducer'
p3884
sbsg2404
g2406
sS'_Process__vpsets'
p3885
(dp3886
sS'EcalTrigTowerConstituentsMapBuilder'
p3887
g0
(g7
g2
Ntp3888
Rp3889
(dp3890
g11
(lp3891
S'MapFile'
p3892
asg14
I00
sg15
I00
sg3892
g0
(g77
g2
Ntp3893
Rp3894
(dp3895
g14
I00
sg32
I00
sg81
S'Geometry/EcalMapping/data/EndCap_TTMap.txt'
p3896
sg15
I00
sbsg17
g18
sg16
I40
sg34
g3887
sg35
g3887
sbsS'siStripBackPlaneCorrectionDepESProducer'
p3897
g0
(g7
g2
Ntp3898
Rp3899
(dp3900
g11
(lp3901
S'LatencyRecord'
p3902
aS'BackPlaneCorrectionDeconvMode'
p3903
aS'BackPlaneCorrectionPeakMode'
p3904
asg14
I00
sg15
I00
sg16
I40
sg17
g18
sg3902
g0
(g67
g2
Ntp3905
Rp3906
(dp3907
g14
I00
sg32
I01
sg15
I00
sS'label'
p3908
g0
(g77
g2
Ntp3909
Rp3910
(dp3911
g14
I00
sg32
I00
sg81
g100
sg15
I00
sbsg3008
g0
(g77
g2
Ntp3912
Rp3913
(dp3914
g14
I00
sg32
I01
sg81
S'SiStripLatencyRcd'
p3915
sg15
I00
sbsg11
(lp3916
g3008
ag3908
asbsg3904
g0
(g67
g2
Ntp3917
Rp3918
(dp3919
g14
I00
sg32
I01
sg15
I00
sg3908
g0
(g77
g2
Ntp3920
Rp3921
(dp3922
g14
I00
sg32
I00
sg81
S'peak'
p3923
sg15
I00
sbsg3008
g0
(g77
g2
Ntp3924
Rp3925
(dp3926
g14
I00
sg32
I01
sg81
S'SiStripBackPlaneCorrectionRcd'
p3927
sg15
I00
sbsg11
(lp3928
g3008
ag3908
asbsg34
g3897
sg3903
g0
(g67
g2
Ntp3929
Rp3930
(dp3931
g14
I00
sg32
I01
sg15
I00
sg3908
g0
(g77
g2
Ntp3932
Rp3933
(dp3934
g14
I00
sg32
I00
sg81
S'deconvolution'
p3935
sg15
I00
sbsg3008
g0
(g77
g2
Ntp3936
Rp3937
(dp3938
g14
I00
sg32
I01
sg81
g3927
sg15
I00
sbsg11
(lp3939
g3008
ag3908
asbsg35
S'SiStripBackPlaneCorrectionDepESProducer'
p3940
sbsS'_Process__esprefers'
p3941
(dp3942
S'es_prefer_hcalHardcode'
p3943
g0
(cFWCore.ParameterSet.Modules
ESPrefer
p3944
g2
Ntp3945
Rp3946
(dp3947
g11
(lp3948
sg14
I00
sg15
I00
sS'_targetLabel'
p3949
S'es_hardcode'
p3950
sg16
I73
sg17
S'/afs/cern.ch/user/c/cheidegg/p/CMSSW_7_4_4_patch2/python/FWCore/ParameterSet/Modules.py'
p3951
sg34
g3943
sg35
S'HcalHardcodeCalibrations'
p3952
sbssg2032
g2024
sS'_Process__isStrict'
p3953
I00
sS'HepPDTESSource'
p3954
g0
(g3034
g2
Ntp3955
Rp3956
(dp3957
g11
(lp3958
S'pdtFileName'
p3959
asg14
I00
sg3959
g0
(cFWCore.ParameterSet.Types
FileInPath
p3960
g2
Ntp3961
Rp3962
(dp3963
g14
I00
sg32
I01
sg81
S'SimGeneral/HepPDTESSource/data/pythiaparticle.tbl'
p3964
sg15
I00
sbsg15
I00
sg16
I4
sg17
S'/cvmfs/cms.cern.ch/slc6_amd64_gcc491/cms/cmssw-patch/CMSSW_7_4_4_patch2/python/SimGeneral/HepPDTESSource/pythiapdt_cfi.py'
p3965
sg34
g3954
sg35
g3954
sbsS'_Process__outputmodules'
p3966
(dp3967
g3737
g3740
ssS'_Process__analyzers'
p3968
(dp3969
g3163
g3142
ssg3121
g3124
sS'idealForDigiTrackerGeometry'
p3970
g0
(g7
g2
Ntp3971
Rp3972
(dp3973
g11
(lp3974
g2172
ag3689
ag3690
ag2062
ag3691
asg14
I00
sg2172
g0
(g77
g2
Ntp3975
Rp3976
(dp3977
g14
I00
sg32
I01
sg81
S'idealForDigi'
p3978
sg15
I01
sbsg3690
g0
(g67
g2
Ntp3979
Rp3980
(dp3981
g14
I00
sg32
I01
sg3698
g0
(g166
g2
Ntp3982
Rp3983
(dp3984
g14
I00
sg32
I01
sg81
I0
sg15
I00
sbsg3702
g0
(g166
g2
Ntp3985
Rp3986
(dp3987
g14
I00
sg32
I01
sg81
I0
sg15
I00
sbsg3706
g0
(g219
g2
Ntp3988
Rp3989
(dp3990
g14
I00
sg32
I01
sg81
I00
sg15
I00
sbsg3710
g0
(g166
g2
Ntp3991
Rp3992
(dp3993
g14
I00
sg32
I01
sg81
I2
sg15
I00
sbsg3714
g0
(g166
g2
Ntp3994
Rp3995
(dp3996
g14
I00
sg32
I01
sg81
I1
sg15
I00
sbsg3718
g0
(g166
g2
Ntp3997
Rp3998
(dp3999
g14
I00
sg32
I01
sg81
I80
sg15
I00
sbsg11
(lp4000
g3698
ag3702
ag3706
ag3710
ag3714
ag3718
ag3723
asg3723
g0
(g166
g2
Ntp4001
Rp4002
(dp4003
g14
I00
sg32
I01
sg81
I52
sg15
I00
sbsg15
I00
sbsg15
I01
sg3691
g0
(g77
g2
Ntp4004
Rp4005
(dp4006
g14
I00
sg32
I01
sg81
S'fakeForIdeal'
p4007
sg15
I01
sbsg17
S'/cvmfs/cms.cern.ch/slc6_amd64_gcc491/cms/cmssw-patch/CMSSW_7_4_4_patch2/python/Geometry/TrackerGeometryBuilder/idealForDigiTrackerGeometryDB_cff.py'
p4008
sg16
I8
sg34
g3970
sg3689
g0
(g219
g2
Ntp4009
Rp4010
(dp4011
g14
I00
sg32
I01
sg81
I00
sg15
I00
sbsg2062
g0
(g219
g2
Ntp4012
Rp4013
(dp4014
g14
I00
sg32
I01
sg81
I00
sg15
I01
sbsg35
g3736
sbsS'essourceEcalSev'
p4015
g0
(g3034
g2
Ntp4016
Rp4017
(dp4018
g11
(lp4019
g3769
ag3770
ag3771
asg14
I00
sg15
I00
sg16
I13
sg3770
g0
(g77
g2
Ntp4020
Rp4021
(dp4022
g14
I00
sg32
I01
sg81
S'EcalSeverityLevelAlgoRcd'
p4023
sg15
I00
sbsg17
S'/cvmfs/cms.cern.ch/slc6_amd64_gcc491/cms/cmssw-patch/CMSSW_7_4_4_patch2/python/RecoLocalCalo/EcalRecAlgos/EcalSeverityLevelESProducer_cfi.py'
p4024
sg3771
g0
(g3777
g20
(lp4025
I1
atp4026
Rp4027
(dp4028
g14
I00
sg32
I01
sg15
I00
sbsg34
g4015
sg3769
g0
(g219
g2
Ntp4029
Rp4030
(dp4031
g14
I00
sg32
I01
sg81
I01
sg15
I00
sbsg35
g3785
sbsS'_Process__looper'
p4032
Nsg3163
g3142
sS'_Process__paths'
p4033
g0
(g3118
g3119
(dp4034
g3131
g3134
stp4035
Rp4036
(dp4037
g3129
(lp4038
g3131
asbsS'_Process__subProcess'
p4039
NsS'options'
p4040
g0
(g67
g2
Ntp4041
Rp4042
(dp4043
g14
I00
sg32
I00
sg15
I00
sS'wantSummary'
p4044
g0
(g219
g2
Ntp4045
Rp4046
(dp4047
g14
I00
sg32
I00
sg81
I01
sg15
I00
sbsg11
(lp4048
g4044
asg34
g4040
sbsS'DTGeometryESModule'
p4049
g0
(g7
g2
Ntp4050
Rp4051
(dp4052
g11
(lp4053
g2172
ag3689
ag2062
ag3691
asg14
I00
sg2172
g0
(g77
g2
Ntp4054
Rp4055
(dp4056
g14
I00
sg32
I01
sg81
g100
sg15
I00
sbsg15
I00
sg3691
g0
(g77
g2
Ntp4057
Rp4058
(dp4059
g14
I00
sg32
I01
sg81
g100
sg15
I00
sbsg17
g18
sg16
I40
sg34
g4049
sg3689
g0
(g219
g2
Ntp4060
Rp4061
(dp4062
g14
I00
sg32
I01
sg81
I00
sg15
I00
sbsg2062
g0
(g219
g2
Ntp4063
Rp4064
(dp4065
g14
I00
sg32
I01
sg81
I01
sg15
I00
sbsg35
g4049
sbsS'VolumeBasedMagneticFieldESProducer'
p4066
g0
(g7
g2
Ntp4067
Rp4068
(dp4069
g11
(lp4070
S'valueOverride'
p4071
aS'debugBuilder'
p4072
ag3908
asg14
I00
sg4071
g0
(g166
g2
Ntp4073
Rp4074
(dp4075
g14
I00
sg32
I01
sg81
I-1
sg15
I00
sbsg16
I40
sg17
g18
sg3908
g0
(g77
g2
Ntp4076
Rp4077
(dp4078
g14
I00
sg32
I00
sg81
g100
sg15
I00
sbsg4072
g0
(g219
g2
Ntp4079
Rp4080
(dp4081
g14
I00
sg32
I00
sg81
I00
sg15
I00
sbsg34
g4066
sg35
S'VolumeBasedMagneticFieldESProducerFromDB'
p4082
sg15
I00
sbsS'CaloTopologyBuilder'
p4083
g0
(g7
g2
Ntp4084
Rp4085
(dp4086
g11
(lp4087
sg14
I00
sg15
I00
sg16
I40
sg17
g18
sg34
g4083
sg35
g4083
sbsS'SiStripRecHitMatcherESProducer'
p4088
g0
(g7
g2
Ntp4089
Rp4090
(dp4091
g11
(lp4092
S'PreFilter'
p4093
aS'ComponentName'
p4094
aS'NSigmaInside'
p4095
asg14
I00
sg15
I00
sg17
g18
sg4094
g0
(g77
g2
Ntp4096
Rp4097
(dp4098
g14
I00
sg32
I01
sg81
S'StandardMatcher'
p4099
sg15
I00
sbsg4093
g0
(g219
g2
Ntp4100
Rp4101
(dp4102
g14
I00
sg32
I01
sg81
I00
sg15
I00
sbsg16
I40
sg4095
g0
(g85
g2
Ntp4103
Rp4104
(dp4105
g14
I00
sg32
I01
sg81
F3.0
sg15
I00
sbsg34
g4088
sg35
g4088
sbsS'_Process__psets'
p4106
(dp4107
S'maxEvents'
p4108
g0
(g67
g2
Ntp4109
Rp4110
(dp4111
g14
I00
sg32
I00
sg15
I00
sg11
(lp4112
S'input'
p4113
asg34
g4108
sg4113
g0
(g166
g2
Ntp4114
Rp4115
(dp4116
g14
I00
sg32
I00
sg81
I10
sg15
I00
sbsbsg3425
g3427
sg2084
g2086
sg4040
g4042
sS'CondDBSetup'
p4117
g0
(g67
g2
Ntp4118
Rp4119
(dp4120
g14
I00
sg32
I01
sg15
I00
sg3039
g0
(g67
g2
Ntp4121
Rp4122
(dp4123
g14
I00
sg32
I01
sg3060
g0
(g166
g2
Ntp4124
Rp4125
(dp4126
g14
I00
sg32
I00
sg81
I10
sg15
I00
sbsg3056
g0
(g77
g2
Ntp4127
Rp4128
(dp4129
g14
I00
sg32
I00
sg81
g100
sg15
I00
sbsg15
I00
sg3064
g0
(g166
g2
Ntp4130
Rp4131
(dp4132
g14
I00
sg32
I00
sg81
I10
sg15
I00
sbsg3068
g0
(g166
g2
Ntp4133
Rp4134
(dp4135
g14
I00
sg32
I00
sg81
I0
sg15
I00
sbsg3072
g0
(g219
g2
Ntp4136
Rp4137
(dp4138
g14
I00
sg32
I00
sg81
I00
sg15
I00
sbsg3076
g0
(g219
g2
Ntp4139
Rp4140
(dp4141
g14
I00
sg32
I00
sg81
I01
sg15
I00
sbsg3080
g0
(g219
g2
Ntp4142
Rp4143
(dp4144
g14
I00
sg32
I00
sg81
I00
sg15
I00
sbsg11
(lp4145
g3056
ag3080
ag3064
ag3068
ag3072
ag3076
ag3085
ag3086
ag3087
ag3060
asg3086
g0
(g166
g2
Ntp4146
Rp4147
(dp4148
g14
I00
sg32
I00
sg81
I60
sg15
I00
sbsg3087
g0
(g166
g2
Ntp4149
Rp4150
(dp4151
g14
I00
sg32
I00
sg81
I0
sg15
I00
sbsg3085
g0
(g166
g2
Ntp4152
Rp4153
(dp4154
g14
I00
sg32
I00
sg81
I60
sg15
I00
sbsbsg11
(lp4155
g3039
asg34
g4117
sbssg283
g122
sS'_Process__essources'
p4156
(dp4157
g3764
g3766
sg4015
g4017
sg3033
g3036
sS'essourceSev'
p4158
g0
(g3034
g2
Ntp4159
Rp4160
(dp4161
g11
(lp4162
g3769
ag3770
ag3771
asg14
I00
sg15
I00
sg16
I25
sg3770
g0
(g77
g2
Ntp4163
Rp4164
(dp4165
g14
I00
sg32
I01
sg81
S'HcalSeverityLevelComputerRcd'
p4166
sg15
I00
sbsg17
S'/cvmfs/cms.cern.ch/slc6_amd64_gcc491/cms/cmssw-patch/CMSSW_7_4_4_patch2/python/RecoLocalCalo/HcalRecAlgos/hcalRecAlgoESProd_cfi.py'
p4167
sg3771
g0
(g3777
g20
(lp4168
I1
atp4169
Rp4170
(dp4171
g14
I00
sg32
I01
sg15
I00
sbsg34
g4158
sg3769
g0
(g219
g2
Ntp4172
Rp4173
(dp4174
g14
I00
sg32
I01
sg81
I01
sg15
I00
sbsg35
g3785
sbsg3954
g3956
sg3950
g0
(g3034
g2
Ntp4175
Rp4176
(dp4177
g11
(lp4178
g2084
aS'HERecalibration'
p4179
ag3041
aS'GainWidthsForTrigPrims'
p4180
aS'HEreCalibCutoff'
p4181
aS'HFRecalibration'
p4182
aS'iLumi'
p4183
ag2063
asg14
I00
sg2084
g2086
sg15
I01
sg16
I19
sg4179
g0
(g219
g2
Ntp4184
Rp4185
(dp4186
g14
I00
sg32
I01
sg81
I00
sg15
I00
sbsg2063
g0
(g67
g2
Ntp4187
Rp4188
(dp4189
g14
I00
sg32
I01
sg15
I00
sg2067
g0
(g166
g2
Ntp4190
Rp4191
(dp4192
g14
I00
sg32
I01
sg81
I3
sg15
I00
sbsg2071
g0
(g166
g2
Ntp4193
Rp4194
(dp4195
g14
I00
sg32
I01
sg81
I2
sg15
I00
sbsg11
(lp4196
g2067
ag2071
ag2076
asg2076
g0
(g77
g2
Ntp4197
Rp4198
(dp4199
g14
I00
sg32
I01
sg81
g2080
sg15
I00
sbsbsg3041
g0
(g19
g20
(lp4200
S'GainWidths'
p4201
atp4202
Rp4203
(dp4204
g14
I00
sg32
I00
sg15
I00
sg33
I1
sbsg4180
g0
(g219
g2
Ntp4205
Rp4206
(dp4207
g14
I00
sg32
I01
sg81
I00
sg15
I00
sbsg4181
g0
(g85
g2
Ntp4208
Rp4209
(dp4210
g14
I00
sg32
I01
sg81
F20.0
sg15
I00
sbsg4182
g0
(g219
g2
Ntp4211
Rp4212
(dp4213
g14
I00
sg32
I01
sg81
I00
sg15
I00
sbsg17
S'/cvmfs/cms.cern.ch/slc6_amd64_gcc491/cms/cmssw-patch/CMSSW_7_4_4_patch2/python/CalibCalorimetry/HcalPlugins/Hcal_Conditions_forGlobalTag_cff.py'
p4214
sg34
g3950
sg4183
g0
(g85
g2
Ntp4215
Rp4216
(dp4217
g14
I00
sg32
I01
sg81
F-1.0
sg15
I00
sbsg35
g3952
sbssS'hcalRecAlgos'
p4218
g0
(g7
g2
Ntp4219
Rp4220
(dp4221
g11
(lp4222
S'RecoveredRecHitBits'
p4223
aS'SeverityLevels'
p4224
aS'DropChannelStatusBits'
p4225
asg14
I00
sg15
I00
sg17
g18
sg4223
g0
(g19
g20
(lp4226
S'TimingAddedBit'
p4227
aS'TimingSubtractedBit'
p4228
atp4229
Rp4230
(dp4231
g14
I00
sg32
I01
sg15
I00
sg33
I1
sbsg16
I40
sg4225
g0
(g19
g20
(lp4232
S'HcalCellMask'
p4233
aS'HcalCellOff'
p4234
aS'HcalCellDead'
p4235
atp4236
Rp4237
(dp4238
g14
I00
sg32
I01
sg15
I00
sg33
I1
sbsg34
g4218
sg4224
g0
(g65
g20
(lp4239
g0
(g67
g2
Ntp4240
Rp4241
(dp4242
g14
I00
sg32
I01
sS'ChannelStatus'
p4243
g0
(g19
g20
(lp4244
g100
atp4245
Rp4246
(dp4247
g14
I00
sg32
I01
sg15
I00
sg33
I1
sbsg15
I00
sS'Level'
p4248
g0
(g166
g2
Ntp4249
Rp4250
(dp4251
g14
I00
sg32
I01
sg81
I0
sg15
I00
sbsg11
(lp4252
S'RecHitFlags'
p4253
ag4243
ag4248
asg4253
g0
(g19
g20
(lp4254
g100
atp4255
Rp4256
(dp4257
g14
I00
sg32
I01
sg15
I00
sg33
I1
sbsbag0
(g67
g2
Ntp4258
Rp4259
(dp4260
g14
I00
sg32
I01
sg4243
g0
(g19
g20
(lp4261
S'HcalCellCaloTowerProb'
p4262
atp4263
Rp4264
(dp4265
g14
I00
sg32
I01
sg15
I00
sg33
I1
sbsg15
I00
sg4248
g0
(g166
g2
Ntp4266
Rp4267
(dp4268
g14
I00
sg32
I01
sg81
I1
sg15
I00
sbsg11
(lp4269
g4253
ag4243
ag4248
asg4253
g0
(g19
g20
(lp4270
g100
atp4271
Rp4272
(dp4273
g14
I00
sg32
I01
sg15
I00
sg33
I1
sbsbag0
(g67
g2
Ntp4274
Rp4275
(dp4276
g14
I00
sg32
I01
sg4243
g0
(g19
g20
(lp4277
S'HcalCellExcludeFromHBHENoiseSummary'
p4278
atp4279
Rp4280
(dp4281
g14
I00
sg32
I01
sg15
I00
sg33
I1
sbsg15
I00
sg4248
g0
(g166
g2
Ntp4282
Rp4283
(dp4284
g14
I00
sg32
I01
sg81
I5
sg15
I00
sbsg11
(lp4285
g4253
ag4243
ag4248
asg4253
g0
(g19
g20
(lp4286
S'HSCP_R1R2'
p4287
aS'HSCP_FracLeader'
p4288
aS'HSCP_OuterEnergy'
p4289
aS'HSCP_ExpFit'
p4290
aS'ADCSaturationBit'
p4291
aS'HBHEIsolatedNoise'
p4292
aS'AddedSimHcalNoise'
p4293
atp4294
Rp4295
(dp4296
g14
I00
sg32
I01
sg15
I00
sg33
I1
sbsbag0
(g67
g2
Ntp4297
Rp4298
(dp4299
g14
I00
sg32
I01
sg4243
g0
(g19
g20
(lp4300
g100
atp4301
Rp4302
(dp4303
g14
I00
sg32
I01
sg15
I00
sg33
I1
sbsg15
I00
sg4248
g0
(g166
g2
Ntp4304
Rp4305
(dp4306
g14
I00
sg32
I01
sg81
I8
sg15
I00
sbsg11
(lp4307
g4253
ag4243
ag4248
asg4253
g0
(g19
g20
(lp4308
S'HBHEHpdHitMultiplicity'
p4309
aS'HBHEPulseShape'
p4310
aS'HOBit'
p4311
aS'HFDigiTime'
p4312
aS'HFInTimeWindow'
p4313
aS'ZDCBit'
p4314
aS'CalibrationBit'
p4315
aS'TimingErrorBit'
p4316
aS'HBHEFlatNoise'
p4317
aS'HBHESpikeNoise'
p4318
aS'HBHETriangleNoise'
p4319
aS'HBHETS4TS5Noise'
p4320
aS'HBHENegativeNoise'
p4321
atp4322
Rp4323
(dp4324
g14
I00
sg32
I01
sg15
I00
sg33
I1
sbsbag0
(g67
g2
Ntp4325
Rp4326
(dp4327
g14
I00
sg32
I01
sg4243
g0
(g19
g20
(lp4328
g100
atp4329
Rp4330
(dp4331
g14
I00
sg32
I01
sg15
I00
sg33
I1
sbsg15
I00
sg4248
g0
(g166
g2
Ntp4332
Rp4333
(dp4334
g14
I00
sg32
I01
sg81
I11
sg15
I00
sbsg11
(lp4335
g4253
ag4243
ag4248
asg4253
g0
(g19
g20
(lp4336
S'HFLongShort'
p4337
aS'HFPET'
p4338
aS'HFS8S1Ratio'
p4339
atp4340
Rp4341
(dp4342
g14
I00
sg32
I01
sg15
I00
sg33
I1
sbsbag0
(g67
g2
Ntp4343
Rp4344
(dp4345
g14
I00
sg32
I01
sg4243
g0
(g19
g20
(lp4346
S'HcalCellCaloTowerMask'
p4347
atp4348
Rp4349
(dp4350
g14
I00
sg32
I01
sg15
I00
sg33
I1
sbsg15
I00
sg4248
g0
(g166
g2
Ntp4351
Rp4352
(dp4353
g14
I00
sg32
I01
sg81
I12
sg15
I00
sbsg11
(lp4354
g4253
ag4243
ag4248
asg4253
g0
(g19
g20
(lp4355
g100
atp4356
Rp4357
(dp4358
g14
I00
sg32
I01
sg15
I00
sg33
I1
sbsbag0
(g67
g2
Ntp4359
Rp4360
(dp4361
g14
I00
sg32
I01
sg4243
g0
(g19
g20
(lp4362
S'HcalCellHot'
p4363
atp4364
Rp4365
(dp4366
g14
I00
sg32
I01
sg15
I00
sg33
I1
sbsg15
I00
sg4248
g0
(g166
g2
Ntp4367
Rp4368
(dp4369
g14
I00
sg32
I01
sg81
I15
sg15
I00
sbsg11
(lp4370
g4253
ag4243
ag4248
asg4253
g0
(g19
g20
(lp4371
g100
atp4372
Rp4373
(dp4374
g14
I00
sg32
I01
sg15
I00
sg33
I1
sbsbag0
(g67
g2
Ntp4375
Rp4376
(dp4377
g14
I00
sg32
I01
sg4243
g0
(g19
g20
(lp4378
g4234
ag4235
atp4379
Rp4380
(dp4381
g14
I00
sg32
I01
sg15
I00
sg33
I1
sbsg15
I00
sg4248
g0
(g166
g2
Ntp4382
Rp4383
(dp4384
g14
I00
sg32
I01
sg81
I20
sg15
I00
sbsg11
(lp4385
g4253
ag4243
ag4248
asg4253
g0
(g19
g20
(lp4386
g100
atp4387
Rp4388
(dp4389
g14
I00
sg32
I01
sg15
I00
sg33
I1
sbsbatp4390
Rp4391
(dp4392
g14
I00
sg32
I01
sg15
I00
sg33
I1
sbsg35
S'HcalRecAlgoESProducer'
p4393
sbsg2055
g2045
sg4108
g4110
sg329
g51
sS'CSCGeometryESModule'
p4394
g0
(g7
g2
Ntp4395
Rp4396
(dp4397
g11
(lp4398
g2172
aS'useDDD'
p4399
aS'debugV'
p4400
aS'useGangedStripsInME1a'
p4401
ag3691
aS'useOnlyWiresInME1a'
p4402
aS'useRealWireGeometry'
p4403
aS'useCentreTIOffsets'
p4404
ag2062
asg14
I00
sg2172
g0
(g77
g2
Ntp4405
Rp4406
(dp4407
g14
I00
sg32
I01
sg81
g100
sg15
I00
sbsg15
I00
sg4400
g0
(g219
g2
Ntp4408
Rp4409
(dp4410
g14
I00
sg32
I00
sg81
I00
sg15
I00
sbsg17
g18
sg4401
g0
(g219
g2
Ntp4411
Rp4412
(dp4413
g14
I00
sg32
I01
sg81
I01
sg15
I00
sbsg3691
g0
(g77
g2
Ntp4414
Rp4415
(dp4416
g14
I00
sg32
I01
sg81
g100
sg15
I00
sbsg4402
g0
(g219
g2
Ntp4417
Rp4418
(dp4419
g14
I00
sg32
I01
sg81
I00
sg15
I00
sbsg4399
g0
(g219
g2
Ntp4420
Rp4421
(dp4422
g14
I00
sg32
I01
sg81
I00
sg15
I00
sbsg16
I40
sg4404
g0
(g219
g2
Ntp4423
Rp4424
(dp4425
g14
I00
sg32
I01
sg81
I00
sg15
I00
sbsg34
g4394
sg4403
g0
(g219
g2
Ntp4426
Rp4427
(dp4428
g14
I00
sg32
I01
sg81
I01
sg15
I00
sbsg2062
g0
(g219
g2
Ntp4429
Rp4430
(dp4431
g14
I00
sg32
I01
sg81
I01
sg15
I00
sbsg35
g4394
sbsS'EcalBarrelGeometryFromDBEP'
p4432
g0
(g7
g2
Ntp4433
Rp4434
(dp4435
g11
(lp4436
g2062
asg14
I00
sg15
I01
sg16
I40
sg17
g18
sg34
g4432
sg2062
g0
(g219
g2
Ntp4437
Rp4438
(dp4439
g14
I00
sg32
I01
sg81
I01
sg15
I01
sbsg35
g4432
sbsS'trackerNumberingGeometryDB'
p4440
g0
(g7
g2
Ntp4441
Rp4442
(dp4443
g11
(lp4444
g2172
ag3689
asg14
I00
sg2172
g0
(g77
g2
Ntp4445
Rp4446
(dp4447
g14
I00
sg32
I01
sg81
g100
sg15
I00
sbsg15
I00
sg16
I40
sg17
g18
sg34
g4440
sg3689
g0
(g219
g2
Ntp4448
Rp4449
(dp4450
g14
I00
sg32
I01
sg81
I00
sg15
I00
sbsg35
S'TrackerGeometricDetESModule'
p4451
sbsS'_Process__name'
p4452
S'SKIM'
p4453
sg3950
g4176
sg1700
g917
sS'_cloneToObjectDict'
p4454
(dp4455
I27202384
g4220
sI26698768
g0
(g7
g2
Ntp4456
Rp4457
(dp4458
g11
(lp4459
g2172
ag4399
ag4400
ag4401
ag3691
ag4402
ag4403
ag4404
ag2062
asg14
I00
sg2172
g0
(g77
g2
Ntp4460
Rp4461
(dp4462
g14
I00
sg32
I01
sg81
g3978
sg15
I01
sbsg15
I01
sg4400
g0
(g219
g2
Ntp4463
Rp4464
(dp4465
g14
I00
sg32
I00
sg81
I00
sg15
I00
sbsg17
S'/cvmfs/cms.cern.ch/slc6_amd64_gcc491/cms/cmssw-patch/CMSSW_7_4_4_patch2/python/Geometry/CSCGeometryBuilder/idealForDigiCscGeometryDB_cff.py'
p4466
sg4401
g0
(g219
g2
Ntp4467
Rp4468
(dp4469
g14
I00
sg32
I01
sg81
I01
sg15
I00
sbsg3691
g0
(g77
g2
Ntp4470
Rp4471
(dp4472
g14
I00
sg32
I01
sg81
g4007
sg15
I01
sbsg4402
g0
(g219
g2
Ntp4473
Rp4474
(dp4475
g14
I00
sg32
I01
sg81
I00
sg15
I00
sbsg4399
g0
(g219
g2
Ntp4476
Rp4477
(dp4478
g14
I00
sg32
I01
sg81
I00
sg15
I00
sbsg16
I8
sg4404
g0
(g219
g2
Ntp4479
Rp4480
(dp4481
g14
I00
sg32
I01
sg81
I00
sg15
I00
sbsg34
S'idealForDigiCSCGeometry'
p4482
sg4403
g0
(g219
g2
Ntp4483
Rp4484
(dp4485
g14
I00
sg32
I01
sg81
I01
sg15
I00
sbsg2062
g0
(g219
g2
Ntp4486
Rp4487
(dp4488
g14
I00
sg32
I01
sg81
I00
sg15
I01
sbsg35
g4394
sbsI27202896
g4017
sI26699408
g0
(g7
g2
Ntp4489
Rp4490
(dp4491
g11
(lp4492
g2172
asg14
I00
sg2172
g0
(g77
g2
Ntp4493
Rp4494
(dp4495
g14
I00
sg32
I01
sg81
g4007
sg15
I01
sbsg15
I01
sg16
I5
sg17
S'/cvmfs/cms.cern.ch/slc6_amd64_gcc491/cms/cmssw-patch/CMSSW_7_4_4_patch2/python/Alignment/CommonAlignmentProducer/fakeForIdealAlignmentProducer_cfi.py'
p4496
sg34
S'fakeForIdealAlignment'
p4497
sg35
S'FakeAlignmentProducer'
p4498
sbsI27223952
g51
sI26277840
g3184
sI26650768
g4119
sI27203920
g1976
sI26823184
g462
sI27204176
g2013
sI26278608
g9
sI26757904
g2422
sI26289232
g2059
sI26279376
g0
(g7
g2
Ntp4499
Rp4500
(dp4501
g11
(lp4502
g2062
asg14
I00
sg15
I01
sg16
I40
sg17
g18
sg34
S'EcalPreshowerGeometryFromDBEP'
p4503
sg2062
g0
(g219
g2
Ntp4504
Rp4505
(dp4506
g14
I00
sg32
I01
sg81
I01
sg15
I01
sbsg35
g4503
sbsI27205200
g2002
sI27305936
g1777
sI27204112
g1991
sI26292112
g0
(g7
g2
Ntp4507
Rp4508
(dp4509
g11
(lp4510
sg14
I00
sg15
I00
sg16
I40
sg17
g18
sg34
S'EcalElectronicsMappingBuilder'
p4511
sg35
g4511
sbsI26698064
g3972
sI27223696
g331
sI26285392
g0
(g7
g2
Ntp4512
Rp4513
(dp4514
g11
(lp4515
g4399
aS'compatibiltyWith11'
p4516
asg14
I00
sg15
I00
sg16
I40
sg17
g18
sg4399
g0
(g219
g2
Ntp4517
Rp4518
(dp4519
g14
I00
sg32
I00
sg81
I00
sg15
I00
sbsg4516
g0
(g219
g2
Ntp4520
Rp4521
(dp4522
g14
I00
sg32
I00
sg81
I01
sg15
I00
sbsg34
S'RPCGeometryESModule'
p4523
sg35
g4523
sbsI26277520
g2119
sI26286096
g4051
sI26290384
g0
(g7
g2
Ntp4524
Rp4525
(dp4526
g11
(lp4527
S'Exclude'
p4528
ag2172
ag2063
asg14
I00
sg2172
g0
(g77
g2
Ntp4529
Rp4530
(dp4531
g14
I00
sg32
I01
sg81
g100
sg15
I00
sbsg15
I01
sg16
I5
sg17
S'/cvmfs/cms.cern.ch/slc6_amd64_gcc491/cms/cmssw-patch/CMSSW_7_4_4_patch2/python/Geometry/HcalEventSetup/HcalTopology_cfi.py'
p4532
sg2063
g0
(g67
g2
Ntp4533
Rp4534
(dp4535
g14
I00
sg32
I01
sg15
I00
sg2067
g0
(g166
g2
Ntp4536
Rp4537
(dp4538
g14
I00
sg32
I01
sg81
I3
sg15
I00
sbsg2071
g0
(g166
g2
Ntp4539
Rp4540
(dp4541
g14
I00
sg32
I01
sg81
I2
sg15
I00
sbsg11
(lp4542
g2067
ag2071
ag2076
asg2076
g0
(g77
g2
Ntp4543
Rp4544
(dp4545
g14
I00
sg32
I01
sg81
g2080
sg15
I00
sbsbsg34
S'hcalTopologyIdeal'
p4546
sg4528
g0
(g77
g2
Ntp4547
Rp4548
(dp4549
g14
I00
sg32
I00
sg81
g100
sg15
I00
sbsg35
S'HcalTopologyIdealEP'
p4550
sbsI27224144
g1702
sI27223376
g122
sI27203856
g4110
sI26650960
g3036
sI28510672
g3134
sI26675920
g0
(g7
g2
Ntp4551
Rp4552
(dp4553
g11
(lp4554
S'printDebug'
p4555
ag2172
aS'APVGain'
p4556
aS'AutomaticNormalization'
p4557
asg14
I00
sg2172
g0
(g77
g2
Ntp4558
Rp4559
(dp4560
g14
I00
sg32
I01
sg81
g100
sg15
I00
sbsg15
I00
sg4557
g0
(g219
g2
Ntp4561
Rp4562
(dp4563
g14
I00
sg32
I01
sg81
I00
sg15
I00
sbsg16
I40
sg4555
g0
(g219
g2
Ntp4564
Rp4565
(dp4566
g14
I00
sg32
I00
sg81
I00
sg15
I00
sbsg17
g18
sg4556
g0
(g65
g20
(lp4567
g0
(g67
g2
Ntp4568
Rp4569
(dp4570
g14
I00
sg32
I01
sg15
I00
sS'Label'
p4571
g0
(g77
g2
Ntp4572
Rp4573
(dp4574
g14
I00
sg32
I00
sg81
g100
sg15
I00
sbsS'Record'
p4575
g0
(g77
g2
Ntp4576
Rp4577
(dp4578
g14
I00
sg32
I01
sg81
S'SiStripApvGainRcd'
p4579
sg15
I00
sbsS'NormalizationFactor'
p4580
g0
(g85
g2
Ntp4581
Rp4582
(dp4583
g14
I00
sg32
I00
sg81
F1.0
sg15
I00
sbsg11
(lp4584
g4575
ag4580
ag4571
asbag0
(g67
g2
Ntp4585
Rp4586
(dp4587
g14
I00
sg32
I01
sg15
I00
sg4571
g0
(g77
g2
Ntp4588
Rp4589
(dp4590
g14
I00
sg32
I00
sg81
g100
sg15
I00
sbsg4575
g0
(g77
g2
Ntp4591
Rp4592
(dp4593
g14
I00
sg32
I01
sg81
S'SiStripApvGain2Rcd'
p4594
sg15
I00
sbsg4580
g0
(g85
g2
Ntp4595
Rp4596
(dp4597
g14
I00
sg32
I00
sg81
F1.0
sg15
I00
sbsg11
(lp4598
g4575
ag4580
ag4571
asbatp4599
Rp4600
(dp4601
g14
I00
sg32
I01
sg15
I00
sg33
I1
sbsg34
S'siStripGainESProducer'
p4602
sg35
S'SiStripGainESProducer'
p4603
sbsI27204880
g0
(g3107
g2
Ntp4604
Rp4605
(dp4606
g11
(lp4607
g92
aS'minNumber'
p4608
asg14
I00
sg15
I00
sg4608
g0
(g144
g2
Ntp4609
Rp4610
(dp4611
g14
I00
sg32
I01
sg81
I1
sg15
I00
sbsg92
g0
(g93
g2
Ntp4612
Rp4613
(dp4614
g14
I00
sg32
I01
sg15
I00
sg97
g2404
sg99
g100
sg101
g100
sbsg17
g1987
sg16
I125
sg34
S'metCounter'
p4615
sg35
S'CandViewCountFilter'
p4616
sbsI27224272
g41
sI26758608
g3427
sI26291792
g3889
sI26279568
g4434
sI26758864
g2388
sI26652496
g2086
sI26673616
g3946
sI26798800
g2454
sI26755216
g0
(g7
g2
Ntp4617
Rp4618
(dp4619
g11
(lp4620
g2172
aS'PrintDebugOutput'
p4621
aS'ThresholdForReducedGranularity'
p4622
aS'UseEmptyRunInfo'
p4623
aS'ReduceGranularity'
p4624
ag3003
asg14
I00
sg2172
g0
(g77
g2
Ntp4625
Rp4626
(dp4627
g14
I00
sg32
I01
sg81
g100
sg15
I00
sbsg15
I01
sg16
I40
sg17
g18
sg4622
g0
(g85
g2
Ntp4628
Rp4629
(dp4630
g14
I00
sg32
I01
sg81
F0.29999999999999999
sg15
I00
sbsg34
S'siStripQualityESProducer'
p4631
sg4623
g0
(g219
g2
Ntp4632
Rp4633
(dp4634
g14
I00
sg32
I01
sg81
I00
sg15
I00
sbsg4624
g0
(g219
g2
Ntp4635
Rp4636
(dp4637
g14
I00
sg32
I01
sg81
I00
sg15
I00
sbsg3003
g0
(g65
g20
(lp4638
g0
(g67
g2
Ntp4639
Rp4640
(dp4641
g14
I00
sg32
I01
sg15
I00
sg3008
g0
(g77
g2
Ntp4642
Rp4643
(dp4644
g14
I00
sg32
I01
sg81
S'SiStripDetVOffRcd'
p4645
sg15
I00
sbsg3013
g0
(g77
g2
Ntp4646
Rp4647
(dp4648
g14
I00
sg32
I01
sg81
g100
sg15
I00
sbsg11
(lp4649
g3008
ag3013
asbag0
(g67
g2
Ntp4650
Rp4651
(dp4652
g14
I00
sg32
I01
sg15
I00
sg3008
g0
(g77
g2
Ntp4653
Rp4654
(dp4655
g14
I00
sg32
I01
sg81
S'SiStripDetCablingRcd'
p4656
sg15
I00
sbsg3013
g0
(g77
g2
Ntp4657
Rp4658
(dp4659
g14
I00
sg32
I01
sg81
g100
sg15
I00
sbsg11
(lp4660
g3008
ag3013
asbag0
(g67
g2
Ntp4661
Rp4662
(dp4663
g14
I00
sg32
I01
sg15
I00
sg3008
g0
(g77
g2
Ntp4664
Rp4665
(dp4666
g14
I00
sg32
I01
sg81
S'RunInfoRcd'
p4667
sg15
I00
sbsg3013
g0
(g77
g2
Ntp4668
Rp4669
(dp4670
g14
I00
sg32
I01
sg81
g100
sg15
I00
sbsg11
(lp4671
g3008
ag3013
asbag0
(g67
g2
Ntp4672
Rp4673
(dp4674
g14
I00
sg32
I01
sg15
I00
sg3008
g0
(g77
g2
Ntp4675
Rp4676
(dp4677
g14
I00
sg32
I01
sg81
S'SiStripBadChannelRcd'
p4678
sg15
I00
sbsg3013
g0
(g77
g2
Ntp4679
Rp4680
(dp4681
g14
I00
sg32
I01
sg81
g100
sg15
I00
sbsg11
(lp4682
g3008
ag3013
asbag0
(g67
g2
Ntp4683
Rp4684
(dp4685
g14
I00
sg32
I01
sg15
I00
sg3008
g0
(g77
g2
Ntp4686
Rp4687
(dp4688
g14
I00
sg32
I01
sg81
S'SiStripBadFiberRcd'
p4689
sg15
I00
sbsg3013
g0
(g77
g2
Ntp4690
Rp4691
(dp4692
g14
I00
sg32
I01
sg81
g100
sg15
I00
sbsg11
(lp4693
g3008
ag3013
asbag0
(g67
g2
Ntp4694
Rp4695
(dp4696
g14
I00
sg32
I01
sg15
I00
sg3008
g0
(g77
g2
Ntp4697
Rp4698
(dp4699
g14
I00
sg32
I01
sg81
S'SiStripBadModuleRcd'
p4700
sg15
I00
sbsg3013
g0
(g77
g2
Ntp4701
Rp4702
(dp4703
g14
I00
sg32
I01
sg81
g100
sg15
I00
sbsg11
(lp4704
g3008
ag3013
asbag0
(g67
g2
Ntp4705
Rp4706
(dp4707
g14
I00
sg32
I01
sg15
I00
sg3008
g0
(g77
g2
Ntp4708
Rp4709
(dp4710
g14
I00
sg32
I01
sg81
S'SiStripBadStripRcd'
p4711
sg15
I00
sbsg3013
g0
(g77
g2
Ntp4712
Rp4713
(dp4714
g14
I00
sg32
I01
sg81
g100
sg15
I00
sbsg11
(lp4715
g3008
ag3013
asbatp4716
Rp4717
(dp4718
g14
I00
sg32
I01
sg15
I00
sg33
I1
sbsg35
S'SiStripQualityESProducer'
p4719
sg4621
g0
(g219
g2
Ntp4720
Rp4721
(dp4722
g14
I00
sg32
I01
sg81
I00
sg15
I00
sbsbsI26681616
g3899
sI26673552
g4176
sI26649104
g3956
sI27203344
g3788
sI26757008
g3109
sI26287696
g0
(g7
g2
Ntp4723
Rp4724
(dp4725
g11
(lp4726
sg14
I00
sg15
I00
sg16
I40
sg17
g18
sg34
S'GlobalTrackingGeometryESProducer'
p4727
sg35
g4727
sbsI27203536
g2406
sI27224080
g2036
sI26278224
g4085
sI26778064
g338
sI26683728
g0
(g7
g2
Ntp4728
Rp4729
(dp4730
g11
(lp4731
sg14
I00
sg15
I00
sg16
I40
sg17
g18
sg34
S'sistripconn'
p4732
sg35
S'SiStripConnectivity'
p4733
sbsI26700816
g0
(g7
g2
Ntp4734
Rp4735
(dp4736
g11
(lp4737
g2172
ag3689
ag2062
ag3691
asg14
I00
sg2172
g0
(g77
g2
Ntp4738
Rp4739
(dp4740
g14
I00
sg32
I01
sg81
g3978
sg15
I01
sbsg15
I01
sg3691
g0
(g77
g2
Ntp4741
Rp4742
(dp4743
g14
I00
sg32
I01
sg81
g4007
sg15
I01
sbsg17
S'/cvmfs/cms.cern.ch/slc6_amd64_gcc491/cms/cmssw-patch/CMSSW_7_4_4_patch2/python/Geometry/DTGeometryBuilder/idealForDigiDtGeometryDB_cff.py'
p4744
sg16
I8
sg34
S'idealForDigiDTGeometry'
p4745
sg3689
g0
(g219
g2
Ntp4746
Rp4747
(dp4748
g14
I00
sg32
I01
sg81
I00
sg15
I00
sbsg2062
g0
(g219
g2
Ntp4749
Rp4750
(dp4751
g14
I00
sg32
I01
sg81
I00
sg15
I01
sbsg35
g4049
sbsI26291408
g0
(g7
g2
Ntp4752
Rp4753
(dp4754
g11
(lp4755
g2062
asg14
I00
sg15
I00
sg16
I40
sg17
g18
sg34
S'ZdcGeometryFromDBEP'
p4756
sg2062
g0
(g219
g2
Ntp4757
Rp4758
(dp4759
g14
I00
sg32
I01
sg81
I00
sg15
I00
sbsg35
g4756
sbsI26651920
g0
(g7
g2
Ntp4760
Rp4761
(dp4762
g11
(lp4763
sg14
I00
sg15
I00
sg16
I40
sg17
g18
sg34
S'EcalLaserCorrectionService'
p4764
sg35
g4764
sbsI26682192
g0
(g7
g2
Ntp4765
Rp4766
(dp4767
g11
(lp4768
S'ComponentType'
p4769
ag4094
aS'parameters'
p4770
asg14
I00
sg15
I00
sg4770
g0
(g67
g2
Ntp4771
Rp4772
(dp4773
g14
I00
sg32
I01
sg15
I00
sg11
(lp4774
sbsg16
I40
sg4094
g0
(g77
g2
Ntp4775
Rp4776
(dp4777
g14
I00
sg32
I01
sg81
S'stripCPE'
p4778
sg15
I00
sbsg4769
g0
(g77
g2
Ntp4779
Rp4780
(dp4781
g14
I00
sg32
I01
sg81
S'SimpleStripCPE'
p4782
sg15
I00
sbsg17
g18
sg34
S'stripCPEESProducer'
p4783
sg35
S'StripCPEESProducer'
p4784
sbsI26761232
g924
sI27274768
g1152
sI26287824
g0
(g7
g2
Ntp4785
Rp4786
(dp4787
g11
(lp4788
sg14
I00
sg15
I00
sg16
I40
sg17
g18
sg34
S'TrackerRecoGeometryESProducer'
p4789
sg35
g4789
sbsI26701584
g4068
sI27203984
g2024
sI26697936
g3766
sI26816784
g1024
sI26284432
g4396
sI26649040
g0
(g7
g2
Ntp4790
Rp4791
(dp4792
g11
(lp4793
S'version'
p4794
ag4071
ag3908
asg14
I00
sg15
I01
sg16
I40
sg17
g18
sg3908
g0
(g77
g2
Ntp4795
Rp4796
(dp4797
g14
I00
sg32
I00
sg81
S'ParabolicMf'
p4798
sg15
I01
sbsg4794
g0
(g77
g2
Ntp4799
Rp4800
(dp4801
g14
I00
sg32
I01
sg81
S'Parabolic'
p4802
sg15
I00
sbsg4071
g0
(g166
g2
Ntp4803
Rp4804
(dp4805
g14
I00
sg32
I01
sg81
I-1
sg15
I00
sbsg34
S'ParabolicParametrizedMagneticFieldProducer'
p4806
sg35
S'AutoParametrizedMagneticFieldProducer'
p4807
sbsI27225296
g4160
sI28508560
g3124
sI26838096
g1387
sI26291088
g3678
sI27224016
g917
sI26757200
g3740
sI26683600
g4090
sI26286352
g4442
sI26839376
g1644
sI27204240
g1969
sI26684112
g0
(g7
g2
Ntp4808
Rp4809
(dp4810
g11
(lp4811
sg14
I00
sg15
I00
sg16
I40
sg17
g18
sg34
S'CastorDbProducer'
p4812
sg35
g4812
sbsI26819344
g59
sI26818192
g1709
sI27204048
g4042
sI26684624
g3000
sI26279184
g3189
sI26682320
g0
(g7
g2
Ntp4813
Rp4814
(dp4815
g11
(lp4816
g4769
ag4094
ag4770
asg14
I00
sg15
I01
sg4770
g0
(g67
g2
Ntp4817
Rp4818
(dp4819
g14
I00
sg32
I01
sS'maxChgOneMIP'
p4820
g0
(g85
g2
Ntp4821
Rp4822
(dp4823
g14
I00
sg32
I01
sg81
F6000.0
sg15
I00
sbsS'mLC_P2'
p4824
g0
(g85
g2
Ntp4825
Rp4826
(dp4827
g14
I00
sg32
I01
sg81
F0.29999999999999999
sg15
I00
sbsS'mLC_P1'
p4828
g0
(g85
g2
Ntp4829
Rp4830
(dp4831
g14
I00
sg32
I01
sg81
F0.61799999999999999
sg15
I00
sbsS'mLC_P0'
p4832
g0
(g85
g2
Ntp4833
Rp4834
(dp4835
g14
I00
sg32
I01
sg81
F-0.32600000000000001
sg15
I00
sbsS'useLegacyError'
p4836
g0
(g219
g2
Ntp4837
Rp4838
(dp4839
g14
I00
sg32
I01
sg81
I00
sg15
I00
sbsS'mTIB_P1'
p4840
g0
(g85
g2
Ntp4841
Rp4842
(dp4843
g14
I00
sg32
I01
sg81
F0.20200000000000001
sg15
I00
sbsS'mTEC_P1'
p4844
g0
(g85
g2
Ntp4845
Rp4846
(dp4847
g14
I00
sg32
I01
sg81
F0.47099999999999997
sg15
I00
sbsS'mTEC_P0'
p4848
g0
(g85
g2
Ntp4849
Rp4850
(dp4851
g14
I00
sg32
I01
sg81
F-1.885
sg15
I00
sbsS'mTOB_P0'
p4852
g0
(g85
g2
Ntp4853
Rp4854
(dp4855
g14
I00
sg32
I01
sg81
F-1.026
sg15
I00
sbsS'mTOB_P1'
p4856
g0
(g85
g2
Ntp4857
Rp4858
(dp4859
g14
I00
sg32
I01
sg81
F0.253
sg15
I00
sbsS'mTIB_P0'
p4860
g0
(g85
g2
Ntp4861
Rp4862
(dp4863
g14
I00
sg32
I01
sg81
F-0.74199999999999999
sg15
I00
sbsg11
(lp4864
g4820
ag4824
ag4828
ag4832
ag4836
ag4844
ag4848
ag4852
ag4856
ag4860
ag4840
aS'mTID_P0'
p4865
aS'mTID_P1'
p4866
asg4865
g0
(g85
g2
Ntp4867
Rp4868
(dp4869
g14
I00
sg32
I01
sg81
F-1.427
sg15
I00
sbsg4866
g0
(g85
g2
Ntp4870
Rp4871
(dp4872
g14
I00
sg32
I01
sg81
F0.433
sg15
I00
sbsg15
I00
sbsg16
I4
sg4094
g0
(g77
g2
Ntp4873
Rp4874
(dp4875
g14
I00
sg32
I01
sg81
S'StripCPEfromTrackAngle'
p4876
sg15
I00
sbsg4769
g0
(g77
g2
Ntp4877
Rp4878
(dp4879
g14
I00
sg32
I01
sg81
g4876
sg15
I00
sbsg17
S'/cvmfs/cms.cern.ch/slc6_amd64_gcc491/cms/cmssw-patch/CMSSW_7_4_4_patch2/python/RecoLocalTracker/SiStripRecHitConverter/StripCPEfromTrackAngle_cfi.py'
p4880
sg34
S'StripCPEfromTrackAngleESProducer'
p4881
sg35
g4784
sbsI26287504
g3686
sI26652112
g0
(g7
g2
Ntp4882
Rp4883
(dp4884
g11
(lp4885
S'file'
p4886
aS'dump'
p4887
asg14
I00
sg15
I00
sg4887
g0
(g19
g20
(lp4888
g100
atp4889
Rp4890
(dp4891
g14
I00
sg32
I00
sg15
I00
sg33
I1
sbsg16
I40
sg17
g18
sg4886
g0
(g77
g2
Ntp4892
Rp4893
(dp4894
g14
I00
sg32
I00
sg81
g100
sg15
I00
sbsg34
S'hcal_db_producer'
p4895
sg35
S'HcalDbProducer'
p4896
sbsI26676816
g0
(g7
g2
Ntp4897
Rp4898
(dp4899
g11
(lp4900
g3902
aS'LorentzAngleDeconvMode'
p4901
aS'LorentzAnglePeakMode'
p4902
asg14
I00
sg15
I00
sg16
I40
sg17
g18
sg3902
g0
(g67
g2
Ntp4903
Rp4904
(dp4905
g14
I00
sg32
I01
sg15
I00
sg3908
g0
(g77
g2
Ntp4906
Rp4907
(dp4908
g14
I00
sg32
I00
sg81
g100
sg15
I00
sbsg3008
g0
(g77
g2
Ntp4909
Rp4910
(dp4911
g14
I00
sg32
I01
sg81
g3915
sg15
I00
sbsg11
(lp4912
g3008
ag3908
asbsg34
S'siStripLorentzAngleDepESProducer'
p4913
sg4902
g0
(g67
g2
Ntp4914
Rp4915
(dp4916
g14
I00
sg32
I01
sg15
I00
sg3908
g0
(g77
g2
Ntp4917
Rp4918
(dp4919
g14
I00
sg32
I00
sg81
g3923
sg15
I00
sbsg3008
g0
(g77
g2
Ntp4920
Rp4921
(dp4922
g14
I00
sg32
I01
sg81
S'SiStripLorentzAngleRcd'
p4923
sg15
I00
sbsg11
(lp4924
g3008
ag3908
asbsg35
S'SiStripLorentzAngleDepESProducer'
p4925
sg4901
g0
(g67
g2
Ntp4926
Rp4927
(dp4928
g14
I00
sg32
I01
sg15
I00
sg3908
g0
(g77
g2
Ntp4929
Rp4930
(dp4931
g14
I00
sg32
I00
sg81
g3935
sg15
I00
sbsg3008
g0
(g77
g2
Ntp4932
Rp4933
(dp4934
g14
I00
sg32
I01
sg81
g4923
sg15
I00
sbsg11
(lp4935
g3008
ag3908
asbsbsI26824528
g869
sI27204432
g3142
sI26288272
g0
(g7
g2
Ntp4936
Rp4937
(dp4938
g11
(lp4939
g2062
ag2063
asg14
I00
sg15
I01
sg16
I40
sg17
g18
sg2063
g0
(g67
g2
Ntp4940
Rp4941
(dp4942
g14
I00
sg32
I01
sg15
I00
sg2067
g0
(g166
g2
Ntp4943
Rp4944
(dp4945
g14
I00
sg32
I01
sg81
I3
sg15
I00
sbsg2071
g0
(g166
g2
Ntp4946
Rp4947
(dp4948
g14
I00
sg32
I01
sg81
I2
sg15
I00
sbsg11
(lp4949
g2067
ag2071
ag2076
asg2076
g0
(g77
g2
Ntp4950
Rp4951
(dp4952
g14
I00
sg32
I01
sg81
g2080
sg15
I00
sbsbsg34
S'HcalGeometryFromDBEP'
p4953
sg2062
g0
(g219
g2
Ntp4954
Rp4955
(dp4956
g14
I00
sg32
I01
sg81
I01
sg15
I01
sbsg35
g4953
sbsI26288784
g0
(g7
g2
Ntp4957
Rp4958
(dp4959
g11
(lp4960
sg14
I00
sg15
I00
sg16
I40
sg17
g18
sg34
S'HcalAlignmentEP'
p4961
sg35
g4961
sbssg4602
g4552
sg4523
g4513
sg4732
g4729
sg111
g59
sg4756
g4753
sg4789
g4786
sg1967
g1969
sg4913
g4898
sg4806
g4791
sg4783
g4766
sg4158
g4160
sg4953
g4937
sg4117
g4119
sg3943
g3946
sg4511
g4508
sg1988
g1976
sg4881
g4814
sS'_Process__aliases'
p4962
(dp4963
sg4727
g4724
sg2420
g2422
sg2000
g1991
sg984
g924
sg2386
g2388
sg4764
g4761
sg4961
g4958
sg4503
g4500
sg4812
g4809
sg4482
g4457
sg4895
g4883
sg4546
g4525
sS'_Process__schedule'
p4964
Nsg4631
g4618
sg4745
g4735
sS'_Process__modifiers'
p4965
(tsg4497
g4490
sS'_Process__filters'
p4966
(dp4967
g4615
g4605
sg3106
g3109
ssg1925
g1777
sS'_Process__esproducers'
p4968
(dp4969
g6
g9
sg4764
g4761
sg4789
g4786
sg4066
g4068
sg4881
g4814
sg3676
g3678
sg4083
g4085
sg4727
g4724
sg3684
g3686
sg4913
g4898
sg4546
g4525
sg4218
g4220
sg4961
g4958
sg4503
g4500
sg4812
g4809
sg4394
g4396
sg4432
g4434
sg4440
g4442
sg4511
g4508
sg3887
g3889
sg4482
g4457
sg2057
g2059
sg3897
g3899
sg4895
g4883
sg4602
g4552
sg4088
g4090
sg4523
g4513
sg4745
g4735
sg2117
g2119
sg4756
g4753
sg4049
g4051
sg4631
g4618
sg4732
g4729
sg2998
g3000
sg3970
g3972
sg4806
g4791
sg4783
g4766
sg3786
g3788
sg3182
g3184
sg3187
g3189
sg4497
g4490
sg4953
g4937
ssg1966
g1702
sg4615
g4605
sS'_Process__partialschedules'
p4970
(dp4971
sg1698
g1644
sg2034
g2036
sb.